ARM GAS  /tmp/ccL3hku5.s 			page 1


   1              		.cpu cortex-m0
   2              		.eabi_attribute 20, 1
   3              		.eabi_attribute 21, 1
   4              		.eabi_attribute 23, 3
   5              		.eabi_attribute 24, 1
   6              		.eabi_attribute 25, 1
   7              		.eabi_attribute 26, 1
   8              		.eabi_attribute 30, 1
   9              		.eabi_attribute 34, 0
  10              		.eabi_attribute 18, 4
  11              		.file	"stm32f0xx_flash.c"
  12              		.text
  13              	.Ltext0:
  14              		.cfi_sections	.debug_frame
  15              		.section	.text.FLASH_SetLatency,"ax",%progbits
  16              		.align	1
  17              		.global	FLASH_SetLatency
  18              		.arch armv6s-m
  19              		.syntax unified
  20              		.code	16
  21              		.thumb_func
  22              		.fpu softvfp
  24              	FLASH_SetLatency:
  25              	.LVL0:
  26              	.LFB40:
  27              		.file 1 "Drivers/STM32F0xx_StdPeriph_Driver/src/stm32f0xx_flash.c"
   1:Drivers/STM32F0xx_StdPeriph_Driver/src/stm32f0xx_flash.c **** /**
   2:Drivers/STM32F0xx_StdPeriph_Driver/src/stm32f0xx_flash.c ****   ******************************************************************************
   3:Drivers/STM32F0xx_StdPeriph_Driver/src/stm32f0xx_flash.c ****   * @file    stm32f0xx_flash.c
   4:Drivers/STM32F0xx_StdPeriph_Driver/src/stm32f0xx_flash.c ****   * @author  MCD Application Team
   5:Drivers/STM32F0xx_StdPeriph_Driver/src/stm32f0xx_flash.c ****   * @version V1.0.0
   6:Drivers/STM32F0xx_StdPeriph_Driver/src/stm32f0xx_flash.c ****   * @date    23-March-2012
   7:Drivers/STM32F0xx_StdPeriph_Driver/src/stm32f0xx_flash.c ****   * @brief   This file provides firmware functions to manage the following 
   8:Drivers/STM32F0xx_StdPeriph_Driver/src/stm32f0xx_flash.c ****   *          functionalities of the FLASH peripheral:
   9:Drivers/STM32F0xx_StdPeriph_Driver/src/stm32f0xx_flash.c ****   *            - FLASH Interface configuration
  10:Drivers/STM32F0xx_StdPeriph_Driver/src/stm32f0xx_flash.c ****   *            - FLASH Memory Programming
  11:Drivers/STM32F0xx_StdPeriph_Driver/src/stm32f0xx_flash.c ****   *            - Option Bytes Programming
  12:Drivers/STM32F0xx_StdPeriph_Driver/src/stm32f0xx_flash.c ****   *            - Interrupts and flags management
  13:Drivers/STM32F0xx_StdPeriph_Driver/src/stm32f0xx_flash.c ****   *
  14:Drivers/STM32F0xx_StdPeriph_Driver/src/stm32f0xx_flash.c ****   *  @verbatim
  15:Drivers/STM32F0xx_StdPeriph_Driver/src/stm32f0xx_flash.c ****  ===============================================================================
  16:Drivers/STM32F0xx_StdPeriph_Driver/src/stm32f0xx_flash.c ****                     ##### How to use this driver #####
  17:Drivers/STM32F0xx_StdPeriph_Driver/src/stm32f0xx_flash.c ****  ===============================================================================
  18:Drivers/STM32F0xx_StdPeriph_Driver/src/stm32f0xx_flash.c ****     [..] This driver provides functions to configure and program the Flash 
  19:Drivers/STM32F0xx_StdPeriph_Driver/src/stm32f0xx_flash.c ****          memory of all STM32F0xx devices. These functions are split in 4 groups
  20:Drivers/STM32F0xx_StdPeriph_Driver/src/stm32f0xx_flash.c ****          (#) FLASH Interface configuration functions: this group includes the 
  21:Drivers/STM32F0xx_StdPeriph_Driver/src/stm32f0xx_flash.c ****              management of following features:
  22:Drivers/STM32F0xx_StdPeriph_Driver/src/stm32f0xx_flash.c ****              (++) Set the latency
  23:Drivers/STM32F0xx_StdPeriph_Driver/src/stm32f0xx_flash.c ****              (++) Enable/Disable the prefetch buffer
  24:Drivers/STM32F0xx_StdPeriph_Driver/src/stm32f0xx_flash.c **** 
  25:Drivers/STM32F0xx_StdPeriph_Driver/src/stm32f0xx_flash.c ****          (#) FLASH Memory Programming functions: this group includes all needed 
  26:Drivers/STM32F0xx_StdPeriph_Driver/src/stm32f0xx_flash.c ****              functions to erase and program the main memory:
  27:Drivers/STM32F0xx_StdPeriph_Driver/src/stm32f0xx_flash.c ****              (++) Lock and Unlock the Flash interface.
  28:Drivers/STM32F0xx_StdPeriph_Driver/src/stm32f0xx_flash.c ****              (++) Erase function: Erase Page, erase all pages.
  29:Drivers/STM32F0xx_StdPeriph_Driver/src/stm32f0xx_flash.c ****              (++) Program functions: Half Word and Word write.
  30:Drivers/STM32F0xx_StdPeriph_Driver/src/stm32f0xx_flash.c **** 
  31:Drivers/STM32F0xx_StdPeriph_Driver/src/stm32f0xx_flash.c ****          (#) FLASH Option Bytes Programming functions: this group includes all 
ARM GAS  /tmp/ccL3hku5.s 			page 2


  32:Drivers/STM32F0xx_StdPeriph_Driver/src/stm32f0xx_flash.c ****              needed functions to:
  33:Drivers/STM32F0xx_StdPeriph_Driver/src/stm32f0xx_flash.c ****              (++) Lock and Unlock the Flash Option bytes.
  34:Drivers/STM32F0xx_StdPeriph_Driver/src/stm32f0xx_flash.c ****              (++) Launch the Option Bytes loader
  35:Drivers/STM32F0xx_StdPeriph_Driver/src/stm32f0xx_flash.c ****              (++) Erase the Option Bytes
  36:Drivers/STM32F0xx_StdPeriph_Driver/src/stm32f0xx_flash.c ****              (++)Set/Reset the write protection
  37:Drivers/STM32F0xx_StdPeriph_Driver/src/stm32f0xx_flash.c ****              (++) Set the Read protection Level
  38:Drivers/STM32F0xx_StdPeriph_Driver/src/stm32f0xx_flash.c ****              (++) Program the user option Bytes
  39:Drivers/STM32F0xx_StdPeriph_Driver/src/stm32f0xx_flash.c ****              (++) Set/Reset the BOOT1 bit
  40:Drivers/STM32F0xx_StdPeriph_Driver/src/stm32f0xx_flash.c ****              (++) Enable/Disable the VDDA Analog Monitoring
  41:Drivers/STM32F0xx_StdPeriph_Driver/src/stm32f0xx_flash.c ****              (++) Get the user option bytes
  42:Drivers/STM32F0xx_StdPeriph_Driver/src/stm32f0xx_flash.c ****              (++) Get the Write protection
  43:Drivers/STM32F0xx_StdPeriph_Driver/src/stm32f0xx_flash.c ****              (++) Get the read protection status
  44:Drivers/STM32F0xx_StdPeriph_Driver/src/stm32f0xx_flash.c **** 
  45:Drivers/STM32F0xx_StdPeriph_Driver/src/stm32f0xx_flash.c ****          (#) FLASH Interrupts and flag management functions: this group includes 
  46:Drivers/STM32F0xx_StdPeriph_Driver/src/stm32f0xx_flash.c ****              all needed functions to:
  47:Drivers/STM32F0xx_StdPeriph_Driver/src/stm32f0xx_flash.c ****              (++) Enable/Disable the flash interrupt sources
  48:Drivers/STM32F0xx_StdPeriph_Driver/src/stm32f0xx_flash.c ****              (++) Get flags status
  49:Drivers/STM32F0xx_StdPeriph_Driver/src/stm32f0xx_flash.c ****              (++) Clear flags
  50:Drivers/STM32F0xx_StdPeriph_Driver/src/stm32f0xx_flash.c ****              (++) Get Flash operation status
  51:Drivers/STM32F0xx_StdPeriph_Driver/src/stm32f0xx_flash.c ****              (++) Wait for last flash operation
  52:Drivers/STM32F0xx_StdPeriph_Driver/src/stm32f0xx_flash.c **** 
  53:Drivers/STM32F0xx_StdPeriph_Driver/src/stm32f0xx_flash.c ****  @endverbatim
  54:Drivers/STM32F0xx_StdPeriph_Driver/src/stm32f0xx_flash.c ****   
  55:Drivers/STM32F0xx_StdPeriph_Driver/src/stm32f0xx_flash.c ****   ******************************************************************************
  56:Drivers/STM32F0xx_StdPeriph_Driver/src/stm32f0xx_flash.c ****   * @attention
  57:Drivers/STM32F0xx_StdPeriph_Driver/src/stm32f0xx_flash.c ****   *
  58:Drivers/STM32F0xx_StdPeriph_Driver/src/stm32f0xx_flash.c ****   * <h2><center>&copy; COPYRIGHT 2012 STMicroelectronics</center></h2>
  59:Drivers/STM32F0xx_StdPeriph_Driver/src/stm32f0xx_flash.c ****   *
  60:Drivers/STM32F0xx_StdPeriph_Driver/src/stm32f0xx_flash.c ****   * Licensed under MCD-ST Liberty SW License Agreement V2, (the "License");
  61:Drivers/STM32F0xx_StdPeriph_Driver/src/stm32f0xx_flash.c ****   * You may not use this file except in compliance with the License.
  62:Drivers/STM32F0xx_StdPeriph_Driver/src/stm32f0xx_flash.c ****   * You may obtain a copy of the License at:
  63:Drivers/STM32F0xx_StdPeriph_Driver/src/stm32f0xx_flash.c ****   *
  64:Drivers/STM32F0xx_StdPeriph_Driver/src/stm32f0xx_flash.c ****   *        http://www.st.com/software_license_agreement_liberty_v2
  65:Drivers/STM32F0xx_StdPeriph_Driver/src/stm32f0xx_flash.c ****   *
  66:Drivers/STM32F0xx_StdPeriph_Driver/src/stm32f0xx_flash.c ****   * Unless required by applicable law or agreed to in writing, software 
  67:Drivers/STM32F0xx_StdPeriph_Driver/src/stm32f0xx_flash.c ****   * distributed under the License is distributed on an "AS IS" BASIS, 
  68:Drivers/STM32F0xx_StdPeriph_Driver/src/stm32f0xx_flash.c ****   * WITHOUT WARRANTIES OR CONDITIONS OF ANY KIND, either express or implied.
  69:Drivers/STM32F0xx_StdPeriph_Driver/src/stm32f0xx_flash.c ****   * See the License for the specific language governing permissions and
  70:Drivers/STM32F0xx_StdPeriph_Driver/src/stm32f0xx_flash.c ****   * limitations under the License.
  71:Drivers/STM32F0xx_StdPeriph_Driver/src/stm32f0xx_flash.c ****   *
  72:Drivers/STM32F0xx_StdPeriph_Driver/src/stm32f0xx_flash.c ****   ******************************************************************************
  73:Drivers/STM32F0xx_StdPeriph_Driver/src/stm32f0xx_flash.c ****   */
  74:Drivers/STM32F0xx_StdPeriph_Driver/src/stm32f0xx_flash.c **** 
  75:Drivers/STM32F0xx_StdPeriph_Driver/src/stm32f0xx_flash.c **** /* Includes ------------------------------------------------------------------*/
  76:Drivers/STM32F0xx_StdPeriph_Driver/src/stm32f0xx_flash.c **** #include "stm32f0xx_flash.h"
  77:Drivers/STM32F0xx_StdPeriph_Driver/src/stm32f0xx_flash.c **** 
  78:Drivers/STM32F0xx_StdPeriph_Driver/src/stm32f0xx_flash.c **** /** @addtogroup STM32F0xx_StdPeriph_Driver
  79:Drivers/STM32F0xx_StdPeriph_Driver/src/stm32f0xx_flash.c ****   * @{
  80:Drivers/STM32F0xx_StdPeriph_Driver/src/stm32f0xx_flash.c ****   */
  81:Drivers/STM32F0xx_StdPeriph_Driver/src/stm32f0xx_flash.c **** 
  82:Drivers/STM32F0xx_StdPeriph_Driver/src/stm32f0xx_flash.c **** /** @defgroup FLASH 
  83:Drivers/STM32F0xx_StdPeriph_Driver/src/stm32f0xx_flash.c ****   * @brief FLASH driver modules
  84:Drivers/STM32F0xx_StdPeriph_Driver/src/stm32f0xx_flash.c ****   * @{
  85:Drivers/STM32F0xx_StdPeriph_Driver/src/stm32f0xx_flash.c ****   */ 
  86:Drivers/STM32F0xx_StdPeriph_Driver/src/stm32f0xx_flash.c **** 
  87:Drivers/STM32F0xx_StdPeriph_Driver/src/stm32f0xx_flash.c **** /* Private typedef -----------------------------------------------------------*/
  88:Drivers/STM32F0xx_StdPeriph_Driver/src/stm32f0xx_flash.c **** /* Private define ------------------------------------------------------------*/
ARM GAS  /tmp/ccL3hku5.s 			page 3


  89:Drivers/STM32F0xx_StdPeriph_Driver/src/stm32f0xx_flash.c ****   /* Private macro -------------------------------------------------------------*/
  90:Drivers/STM32F0xx_StdPeriph_Driver/src/stm32f0xx_flash.c **** /* Private variables ---------------------------------------------------------*/
  91:Drivers/STM32F0xx_StdPeriph_Driver/src/stm32f0xx_flash.c **** /* Private function prototypes -----------------------------------------------*/
  92:Drivers/STM32F0xx_StdPeriph_Driver/src/stm32f0xx_flash.c **** /* Private functions ---------------------------------------------------------*/
  93:Drivers/STM32F0xx_StdPeriph_Driver/src/stm32f0xx_flash.c ****  
  94:Drivers/STM32F0xx_StdPeriph_Driver/src/stm32f0xx_flash.c **** /** @defgroup FLASH_Private_Functions
  95:Drivers/STM32F0xx_StdPeriph_Driver/src/stm32f0xx_flash.c ****   * @{
  96:Drivers/STM32F0xx_StdPeriph_Driver/src/stm32f0xx_flash.c ****   */ 
  97:Drivers/STM32F0xx_StdPeriph_Driver/src/stm32f0xx_flash.c **** 
  98:Drivers/STM32F0xx_StdPeriph_Driver/src/stm32f0xx_flash.c **** /** @defgroup FLASH_Group1 FLASH Interface configuration functions
  99:Drivers/STM32F0xx_StdPeriph_Driver/src/stm32f0xx_flash.c ****   *  @brief   FLASH Interface configuration functions 
 100:Drivers/STM32F0xx_StdPeriph_Driver/src/stm32f0xx_flash.c ****  *
 101:Drivers/STM32F0xx_StdPeriph_Driver/src/stm32f0xx_flash.c **** @verbatim   
 102:Drivers/STM32F0xx_StdPeriph_Driver/src/stm32f0xx_flash.c ****  ===============================================================================
 103:Drivers/STM32F0xx_StdPeriph_Driver/src/stm32f0xx_flash.c ****                ##### FLASH Interface configuration functions #####
 104:Drivers/STM32F0xx_StdPeriph_Driver/src/stm32f0xx_flash.c ****  ===============================================================================
 105:Drivers/STM32F0xx_StdPeriph_Driver/src/stm32f0xx_flash.c **** 
 106:Drivers/STM32F0xx_StdPeriph_Driver/src/stm32f0xx_flash.c ****     [..] FLASH_Interface configuration_Functions, includes the following functions:
 107:Drivers/STM32F0xx_StdPeriph_Driver/src/stm32f0xx_flash.c ****        (+) void FLASH_SetLatency(uint32_t FLASH_Latency):
 108:Drivers/STM32F0xx_StdPeriph_Driver/src/stm32f0xx_flash.c ****     [..] To correctly read data from Flash memory, the number of wait states (LATENCY) 
 109:Drivers/STM32F0xx_StdPeriph_Driver/src/stm32f0xx_flash.c ****      must be correctly programmed according to the frequency of the CPU clock (HCLK) 
 110:Drivers/STM32F0xx_StdPeriph_Driver/src/stm32f0xx_flash.c ****     [..]
 111:Drivers/STM32F0xx_StdPeriph_Driver/src/stm32f0xx_flash.c ****         +--------------------------------------------- +
 112:Drivers/STM32F0xx_StdPeriph_Driver/src/stm32f0xx_flash.c ****         |  Wait states  |   HCLK clock frequency (MHz) |
 113:Drivers/STM32F0xx_StdPeriph_Driver/src/stm32f0xx_flash.c ****         |---------------|------------------------------|
 114:Drivers/STM32F0xx_StdPeriph_Driver/src/stm32f0xx_flash.c ****         |0WS(1CPU cycle)|       0 < HCLK <= 24         |
 115:Drivers/STM32F0xx_StdPeriph_Driver/src/stm32f0xx_flash.c ****         |---------------|------------------------------|
 116:Drivers/STM32F0xx_StdPeriph_Driver/src/stm32f0xx_flash.c ****         |1WS(2CPU cycle)|       24 < HCLK <= 48        |
 117:Drivers/STM32F0xx_StdPeriph_Driver/src/stm32f0xx_flash.c ****         +----------------------------------------------+
 118:Drivers/STM32F0xx_StdPeriph_Driver/src/stm32f0xx_flash.c ****     [..]
 119:Drivers/STM32F0xx_StdPeriph_Driver/src/stm32f0xx_flash.c ****        (+) void FLASH_PrefetchBufferCmd(FunctionalState NewState);
 120:Drivers/STM32F0xx_StdPeriph_Driver/src/stm32f0xx_flash.c ****     [..]
 121:Drivers/STM32F0xx_StdPeriph_Driver/src/stm32f0xx_flash.c ****      All these functions don't need the unlock sequence.
 122:Drivers/STM32F0xx_StdPeriph_Driver/src/stm32f0xx_flash.c **** 
 123:Drivers/STM32F0xx_StdPeriph_Driver/src/stm32f0xx_flash.c **** @endverbatim
 124:Drivers/STM32F0xx_StdPeriph_Driver/src/stm32f0xx_flash.c ****   * @{
 125:Drivers/STM32F0xx_StdPeriph_Driver/src/stm32f0xx_flash.c ****   */
 126:Drivers/STM32F0xx_StdPeriph_Driver/src/stm32f0xx_flash.c **** 
 127:Drivers/STM32F0xx_StdPeriph_Driver/src/stm32f0xx_flash.c **** /**
 128:Drivers/STM32F0xx_StdPeriph_Driver/src/stm32f0xx_flash.c ****   * @brief  Sets the code latency value.
 129:Drivers/STM32F0xx_StdPeriph_Driver/src/stm32f0xx_flash.c ****   * @param  FLASH_Latency: specifies the FLASH Latency value.
 130:Drivers/STM32F0xx_StdPeriph_Driver/src/stm32f0xx_flash.c ****   *   This parameter can be one of the following values:
 131:Drivers/STM32F0xx_StdPeriph_Driver/src/stm32f0xx_flash.c ****   *     @arg FLASH_Latency_0: FLASH Zero Latency cycle
 132:Drivers/STM32F0xx_StdPeriph_Driver/src/stm32f0xx_flash.c ****   *     @arg FLASH_Latency_1: FLASH One Latency cycle
 133:Drivers/STM32F0xx_StdPeriph_Driver/src/stm32f0xx_flash.c ****   * @retval None
 134:Drivers/STM32F0xx_StdPeriph_Driver/src/stm32f0xx_flash.c ****   */
 135:Drivers/STM32F0xx_StdPeriph_Driver/src/stm32f0xx_flash.c **** void FLASH_SetLatency(uint32_t FLASH_Latency)
 136:Drivers/STM32F0xx_StdPeriph_Driver/src/stm32f0xx_flash.c **** {
  28              		.loc 1 136 1 view -0
  29              		.cfi_startproc
  30              		@ args = 0, pretend = 0, frame = 0
  31              		@ frame_needed = 0, uses_anonymous_args = 0
  32              		@ link register save eliminated.
 137:Drivers/STM32F0xx_StdPeriph_Driver/src/stm32f0xx_flash.c ****    uint32_t tmpreg = 0;
  33              		.loc 1 137 4 view .LVU1
 138:Drivers/STM32F0xx_StdPeriph_Driver/src/stm32f0xx_flash.c **** 
 139:Drivers/STM32F0xx_StdPeriph_Driver/src/stm32f0xx_flash.c ****   /* Check the parameters */
ARM GAS  /tmp/ccL3hku5.s 			page 4


 140:Drivers/STM32F0xx_StdPeriph_Driver/src/stm32f0xx_flash.c ****   assert_param(IS_FLASH_LATENCY(FLASH_Latency));
  34              		.loc 1 140 3 view .LVU2
 141:Drivers/STM32F0xx_StdPeriph_Driver/src/stm32f0xx_flash.c **** 
 142:Drivers/STM32F0xx_StdPeriph_Driver/src/stm32f0xx_flash.c ****   /* Read the ACR register */
 143:Drivers/STM32F0xx_StdPeriph_Driver/src/stm32f0xx_flash.c ****   tmpreg = FLASH->ACR;  
  35              		.loc 1 143 3 view .LVU3
  36              		.loc 1 143 10 is_stmt 0 view .LVU4
  37 0000 034A     		ldr	r2, .L2
  38 0002 1368     		ldr	r3, [r2]
  39              	.LVL1:
 144:Drivers/STM32F0xx_StdPeriph_Driver/src/stm32f0xx_flash.c **** 
 145:Drivers/STM32F0xx_StdPeriph_Driver/src/stm32f0xx_flash.c ****   /* Sets the Latency value */
 146:Drivers/STM32F0xx_StdPeriph_Driver/src/stm32f0xx_flash.c ****   tmpreg &= (uint32_t) (~((uint32_t)FLASH_ACR_LATENCY));
  40              		.loc 1 146 3 is_stmt 1 view .LVU5
  41              		.loc 1 146 10 is_stmt 0 view .LVU6
  42 0004 0121     		movs	r1, #1
  43 0006 8B43     		bics	r3, r1
  44              	.LVL2:
 147:Drivers/STM32F0xx_StdPeriph_Driver/src/stm32f0xx_flash.c ****   tmpreg |= FLASH_Latency;
  45              		.loc 1 147 3 is_stmt 1 view .LVU7
  46              		.loc 1 147 10 is_stmt 0 view .LVU8
  47 0008 0343     		orrs	r3, r0
  48              	.LVL3:
 148:Drivers/STM32F0xx_StdPeriph_Driver/src/stm32f0xx_flash.c **** 
 149:Drivers/STM32F0xx_StdPeriph_Driver/src/stm32f0xx_flash.c ****   /* Write the ACR register */
 150:Drivers/STM32F0xx_StdPeriph_Driver/src/stm32f0xx_flash.c ****   FLASH->ACR = tmpreg;
  49              		.loc 1 150 3 is_stmt 1 view .LVU9
  50              		.loc 1 150 14 is_stmt 0 view .LVU10
  51 000a 1360     		str	r3, [r2]
 151:Drivers/STM32F0xx_StdPeriph_Driver/src/stm32f0xx_flash.c **** }
  52              		.loc 1 151 1 view .LVU11
  53              		@ sp needed
  54 000c 7047     		bx	lr
  55              	.L3:
  56 000e C046     		.align	2
  57              	.L2:
  58 0010 00200240 		.word	1073881088
  59              		.cfi_endproc
  60              	.LFE40:
  62              		.section	.text.FLASH_PrefetchBufferCmd,"ax",%progbits
  63              		.align	1
  64              		.global	FLASH_PrefetchBufferCmd
  65              		.syntax unified
  66              		.code	16
  67              		.thumb_func
  68              		.fpu softvfp
  70              	FLASH_PrefetchBufferCmd:
  71              	.LVL4:
  72              	.LFB41:
 152:Drivers/STM32F0xx_StdPeriph_Driver/src/stm32f0xx_flash.c **** 
 153:Drivers/STM32F0xx_StdPeriph_Driver/src/stm32f0xx_flash.c **** /**
 154:Drivers/STM32F0xx_StdPeriph_Driver/src/stm32f0xx_flash.c ****   * @brief  Enables or disables the Prefetch Buffer.
 155:Drivers/STM32F0xx_StdPeriph_Driver/src/stm32f0xx_flash.c ****   * @param  NewState: new state of the FLASH prefetch buffer.
 156:Drivers/STM32F0xx_StdPeriph_Driver/src/stm32f0xx_flash.c ****   *         This parameter can be: ENABLE or DISABLE. 
 157:Drivers/STM32F0xx_StdPeriph_Driver/src/stm32f0xx_flash.c ****   * @retval None
 158:Drivers/STM32F0xx_StdPeriph_Driver/src/stm32f0xx_flash.c ****   */
 159:Drivers/STM32F0xx_StdPeriph_Driver/src/stm32f0xx_flash.c **** void FLASH_PrefetchBufferCmd(FunctionalState NewState)
ARM GAS  /tmp/ccL3hku5.s 			page 5


 160:Drivers/STM32F0xx_StdPeriph_Driver/src/stm32f0xx_flash.c **** {
  73              		.loc 1 160 1 is_stmt 1 view -0
  74              		.cfi_startproc
  75              		@ args = 0, pretend = 0, frame = 0
  76              		@ frame_needed = 0, uses_anonymous_args = 0
  77              		@ link register save eliminated.
 161:Drivers/STM32F0xx_StdPeriph_Driver/src/stm32f0xx_flash.c ****   /* Check the parameters */
 162:Drivers/STM32F0xx_StdPeriph_Driver/src/stm32f0xx_flash.c ****   assert_param(IS_FUNCTIONAL_STATE(NewState));
  78              		.loc 1 162 3 view .LVU13
 163:Drivers/STM32F0xx_StdPeriph_Driver/src/stm32f0xx_flash.c **** 
 164:Drivers/STM32F0xx_StdPeriph_Driver/src/stm32f0xx_flash.c ****   if(NewState != DISABLE)
  79              		.loc 1 164 3 view .LVU14
  80              		.loc 1 164 5 is_stmt 0 view .LVU15
  81 0000 0028     		cmp	r0, #0
  82 0002 05D0     		beq	.L5
 165:Drivers/STM32F0xx_StdPeriph_Driver/src/stm32f0xx_flash.c ****   {
 166:Drivers/STM32F0xx_StdPeriph_Driver/src/stm32f0xx_flash.c ****     FLASH->ACR |= FLASH_ACR_PRFTBE;
  83              		.loc 1 166 5 is_stmt 1 view .LVU16
  84              		.loc 1 166 16 is_stmt 0 view .LVU17
  85 0004 054A     		ldr	r2, .L7
  86 0006 1368     		ldr	r3, [r2]
  87 0008 1021     		movs	r1, #16
  88 000a 0B43     		orrs	r3, r1
  89 000c 1360     		str	r3, [r2]
  90              	.L4:
 167:Drivers/STM32F0xx_StdPeriph_Driver/src/stm32f0xx_flash.c ****   }
 168:Drivers/STM32F0xx_StdPeriph_Driver/src/stm32f0xx_flash.c ****   else
 169:Drivers/STM32F0xx_StdPeriph_Driver/src/stm32f0xx_flash.c ****   {
 170:Drivers/STM32F0xx_StdPeriph_Driver/src/stm32f0xx_flash.c ****     FLASH->ACR &= (uint32_t)(~((uint32_t)FLASH_ACR_PRFTBE));
 171:Drivers/STM32F0xx_StdPeriph_Driver/src/stm32f0xx_flash.c ****   }
 172:Drivers/STM32F0xx_StdPeriph_Driver/src/stm32f0xx_flash.c **** }
  91              		.loc 1 172 1 view .LVU18
  92              		@ sp needed
  93 000e 7047     		bx	lr
  94              	.L5:
 170:Drivers/STM32F0xx_StdPeriph_Driver/src/stm32f0xx_flash.c ****   }
  95              		.loc 1 170 5 is_stmt 1 view .LVU19
 170:Drivers/STM32F0xx_StdPeriph_Driver/src/stm32f0xx_flash.c ****   }
  96              		.loc 1 170 16 is_stmt 0 view .LVU20
  97 0010 024A     		ldr	r2, .L7
  98 0012 1368     		ldr	r3, [r2]
  99 0014 1021     		movs	r1, #16
 100 0016 8B43     		bics	r3, r1
 101 0018 1360     		str	r3, [r2]
 102              		.loc 1 172 1 view .LVU21
 103 001a F8E7     		b	.L4
 104              	.L8:
 105              		.align	2
 106              	.L7:
 107 001c 00200240 		.word	1073881088
 108              		.cfi_endproc
 109              	.LFE41:
 111              		.section	.text.FLASH_GetPrefetchBufferStatus,"ax",%progbits
 112              		.align	1
 113              		.global	FLASH_GetPrefetchBufferStatus
 114              		.syntax unified
 115              		.code	16
ARM GAS  /tmp/ccL3hku5.s 			page 6


 116              		.thumb_func
 117              		.fpu softvfp
 119              	FLASH_GetPrefetchBufferStatus:
 120              	.LFB42:
 173:Drivers/STM32F0xx_StdPeriph_Driver/src/stm32f0xx_flash.c **** 
 174:Drivers/STM32F0xx_StdPeriph_Driver/src/stm32f0xx_flash.c **** /**
 175:Drivers/STM32F0xx_StdPeriph_Driver/src/stm32f0xx_flash.c ****   * @brief  Checks whether the FLASH Prefetch Buffer status is set or not.
 176:Drivers/STM32F0xx_StdPeriph_Driver/src/stm32f0xx_flash.c ****   * @param  None
 177:Drivers/STM32F0xx_StdPeriph_Driver/src/stm32f0xx_flash.c ****   * @retval FLASH Prefetch Buffer Status (SET or RESET).
 178:Drivers/STM32F0xx_StdPeriph_Driver/src/stm32f0xx_flash.c ****   */
 179:Drivers/STM32F0xx_StdPeriph_Driver/src/stm32f0xx_flash.c **** FlagStatus FLASH_GetPrefetchBufferStatus(void)
 180:Drivers/STM32F0xx_StdPeriph_Driver/src/stm32f0xx_flash.c **** {
 121              		.loc 1 180 1 is_stmt 1 view -0
 122              		.cfi_startproc
 123              		@ args = 0, pretend = 0, frame = 0
 124              		@ frame_needed = 0, uses_anonymous_args = 0
 125              		@ link register save eliminated.
 181:Drivers/STM32F0xx_StdPeriph_Driver/src/stm32f0xx_flash.c ****   FlagStatus bitstatus = RESET;
 126              		.loc 1 181 3 view .LVU23
 127              	.LVL5:
 182:Drivers/STM32F0xx_StdPeriph_Driver/src/stm32f0xx_flash.c **** 
 183:Drivers/STM32F0xx_StdPeriph_Driver/src/stm32f0xx_flash.c ****   if ((FLASH->ACR & FLASH_ACR_PRFTBS) != (uint32_t)RESET)
 128              		.loc 1 183 3 view .LVU24
 129              		.loc 1 183 13 is_stmt 0 view .LVU25
 130 0000 034B     		ldr	r3, .L12
 131 0002 1B68     		ldr	r3, [r3]
 132              		.loc 1 183 6 view .LVU26
 133 0004 9B06     		lsls	r3, r3, #26
 134 0006 01D5     		bpl	.L11
 184:Drivers/STM32F0xx_StdPeriph_Driver/src/stm32f0xx_flash.c ****   {
 185:Drivers/STM32F0xx_StdPeriph_Driver/src/stm32f0xx_flash.c ****     bitstatus = SET;
 135              		.loc 1 185 15 view .LVU27
 136 0008 0120     		movs	r0, #1
 137              	.L10:
 138              	.LVL6:
 186:Drivers/STM32F0xx_StdPeriph_Driver/src/stm32f0xx_flash.c ****   }
 187:Drivers/STM32F0xx_StdPeriph_Driver/src/stm32f0xx_flash.c ****   else
 188:Drivers/STM32F0xx_StdPeriph_Driver/src/stm32f0xx_flash.c ****   {
 189:Drivers/STM32F0xx_StdPeriph_Driver/src/stm32f0xx_flash.c ****     bitstatus = RESET;
 190:Drivers/STM32F0xx_StdPeriph_Driver/src/stm32f0xx_flash.c ****   }
 191:Drivers/STM32F0xx_StdPeriph_Driver/src/stm32f0xx_flash.c ****   /* Return the new state of FLASH Prefetch Buffer Status (SET or RESET) */
 192:Drivers/STM32F0xx_StdPeriph_Driver/src/stm32f0xx_flash.c ****   return bitstatus; 
 139              		.loc 1 192 3 is_stmt 1 view .LVU28
 193:Drivers/STM32F0xx_StdPeriph_Driver/src/stm32f0xx_flash.c **** }
 140              		.loc 1 193 1 is_stmt 0 view .LVU29
 141              		@ sp needed
 142 000a 7047     		bx	lr
 143              	.LVL7:
 144              	.L11:
 189:Drivers/STM32F0xx_StdPeriph_Driver/src/stm32f0xx_flash.c ****   }
 145              		.loc 1 189 15 view .LVU30
 146 000c 0020     		movs	r0, #0
 147 000e FCE7     		b	.L10
 148              	.L13:
 149              		.align	2
 150              	.L12:
 151 0010 00200240 		.word	1073881088
ARM GAS  /tmp/ccL3hku5.s 			page 7


 152              		.cfi_endproc
 153              	.LFE42:
 155              		.section	.text.FLASH_Unlock,"ax",%progbits
 156              		.align	1
 157              		.global	FLASH_Unlock
 158              		.syntax unified
 159              		.code	16
 160              		.thumb_func
 161              		.fpu softvfp
 163              	FLASH_Unlock:
 164              	.LFB43:
 194:Drivers/STM32F0xx_StdPeriph_Driver/src/stm32f0xx_flash.c **** 
 195:Drivers/STM32F0xx_StdPeriph_Driver/src/stm32f0xx_flash.c **** /**
 196:Drivers/STM32F0xx_StdPeriph_Driver/src/stm32f0xx_flash.c ****   * @}
 197:Drivers/STM32F0xx_StdPeriph_Driver/src/stm32f0xx_flash.c ****   */
 198:Drivers/STM32F0xx_StdPeriph_Driver/src/stm32f0xx_flash.c **** 
 199:Drivers/STM32F0xx_StdPeriph_Driver/src/stm32f0xx_flash.c **** /** @defgroup FLASH_Group2 FLASH Memory Programming functions
 200:Drivers/STM32F0xx_StdPeriph_Driver/src/stm32f0xx_flash.c ****  *  @brief   FLASH Memory Programming functions
 201:Drivers/STM32F0xx_StdPeriph_Driver/src/stm32f0xx_flash.c ****  *
 202:Drivers/STM32F0xx_StdPeriph_Driver/src/stm32f0xx_flash.c **** @verbatim   
 203:Drivers/STM32F0xx_StdPeriph_Driver/src/stm32f0xx_flash.c ****  ===============================================================================
 204:Drivers/STM32F0xx_StdPeriph_Driver/src/stm32f0xx_flash.c ****                 ##### FLASH Memory Programming functions #####
 205:Drivers/STM32F0xx_StdPeriph_Driver/src/stm32f0xx_flash.c ****  ===============================================================================
 206:Drivers/STM32F0xx_StdPeriph_Driver/src/stm32f0xx_flash.c **** 
 207:Drivers/STM32F0xx_StdPeriph_Driver/src/stm32f0xx_flash.c ****     [..] The FLASH Memory Programming functions, includes the following functions:
 208:Drivers/STM32F0xx_StdPeriph_Driver/src/stm32f0xx_flash.c ****        (+) void FLASH_Unlock(void);
 209:Drivers/STM32F0xx_StdPeriph_Driver/src/stm32f0xx_flash.c ****        (+) void FLASH_Lock(void);
 210:Drivers/STM32F0xx_StdPeriph_Driver/src/stm32f0xx_flash.c ****        (+) FLASH_Status FLASH_ErasePage(uint32_t Page_Address);
 211:Drivers/STM32F0xx_StdPeriph_Driver/src/stm32f0xx_flash.c ****        (+) FLASH_Status FLASH_EraseAllPages(void);
 212:Drivers/STM32F0xx_StdPeriph_Driver/src/stm32f0xx_flash.c ****        (+) FLASH_Status FLASH_ProgramWord(uint32_t Address, uint32_t Data);
 213:Drivers/STM32F0xx_StdPeriph_Driver/src/stm32f0xx_flash.c ****        (+) FLASH_Status FLASH_ProgramHalfWord(uint32_t Address, uint16_t Data);
 214:Drivers/STM32F0xx_StdPeriph_Driver/src/stm32f0xx_flash.c **** 
 215:Drivers/STM32F0xx_StdPeriph_Driver/src/stm32f0xx_flash.c ****     [..] Any operation of erase or program should follow these steps:
 216:Drivers/STM32F0xx_StdPeriph_Driver/src/stm32f0xx_flash.c ****        
 217:Drivers/STM32F0xx_StdPeriph_Driver/src/stm32f0xx_flash.c ****        (#) Call the FLASH_Unlock() function to enable the flash control register and 
 218:Drivers/STM32F0xx_StdPeriph_Driver/src/stm32f0xx_flash.c ****            program memory access
 219:Drivers/STM32F0xx_StdPeriph_Driver/src/stm32f0xx_flash.c ****        (#) Call the desired function to erase page or program data
 220:Drivers/STM32F0xx_StdPeriph_Driver/src/stm32f0xx_flash.c ****        (#) Call the FLASH_Lock() to disable the flash program memory access 
 221:Drivers/STM32F0xx_StdPeriph_Driver/src/stm32f0xx_flash.c ****       (recommended to protect the FLASH memory against possible unwanted operation)
 222:Drivers/STM32F0xx_StdPeriph_Driver/src/stm32f0xx_flash.c **** 
 223:Drivers/STM32F0xx_StdPeriph_Driver/src/stm32f0xx_flash.c **** @endverbatim
 224:Drivers/STM32F0xx_StdPeriph_Driver/src/stm32f0xx_flash.c ****   * @{
 225:Drivers/STM32F0xx_StdPeriph_Driver/src/stm32f0xx_flash.c ****   */
 226:Drivers/STM32F0xx_StdPeriph_Driver/src/stm32f0xx_flash.c **** 
 227:Drivers/STM32F0xx_StdPeriph_Driver/src/stm32f0xx_flash.c **** /**
 228:Drivers/STM32F0xx_StdPeriph_Driver/src/stm32f0xx_flash.c ****   * @brief  Unlocks the FLASH control register and program memory access.
 229:Drivers/STM32F0xx_StdPeriph_Driver/src/stm32f0xx_flash.c ****   * @param  None
 230:Drivers/STM32F0xx_StdPeriph_Driver/src/stm32f0xx_flash.c ****   * @retval None
 231:Drivers/STM32F0xx_StdPeriph_Driver/src/stm32f0xx_flash.c ****   */
 232:Drivers/STM32F0xx_StdPeriph_Driver/src/stm32f0xx_flash.c **** void FLASH_Unlock(void)
 233:Drivers/STM32F0xx_StdPeriph_Driver/src/stm32f0xx_flash.c **** {
 165              		.loc 1 233 1 is_stmt 1 view -0
 166              		.cfi_startproc
 167              		@ args = 0, pretend = 0, frame = 0
 168              		@ frame_needed = 0, uses_anonymous_args = 0
 169              		@ link register save eliminated.
 234:Drivers/STM32F0xx_StdPeriph_Driver/src/stm32f0xx_flash.c ****   if((FLASH->CR & FLASH_CR_LOCK) != RESET)
ARM GAS  /tmp/ccL3hku5.s 			page 8


 170              		.loc 1 234 3 view .LVU32
 171              		.loc 1 234 12 is_stmt 0 view .LVU33
 172 0000 044B     		ldr	r3, .L16
 173 0002 1B69     		ldr	r3, [r3, #16]
 174              		.loc 1 234 5 view .LVU34
 175 0004 1B06     		lsls	r3, r3, #24
 176 0006 04D5     		bpl	.L14
 235:Drivers/STM32F0xx_StdPeriph_Driver/src/stm32f0xx_flash.c ****   {
 236:Drivers/STM32F0xx_StdPeriph_Driver/src/stm32f0xx_flash.c ****     /* Unlocking the program memory access */
 237:Drivers/STM32F0xx_StdPeriph_Driver/src/stm32f0xx_flash.c ****     FLASH->KEYR = FLASH_FKEY1;
 177              		.loc 1 237 5 is_stmt 1 view .LVU35
 178              		.loc 1 237 17 is_stmt 0 view .LVU36
 179 0008 024B     		ldr	r3, .L16
 180 000a 034A     		ldr	r2, .L16+4
 181 000c 5A60     		str	r2, [r3, #4]
 238:Drivers/STM32F0xx_StdPeriph_Driver/src/stm32f0xx_flash.c ****     FLASH->KEYR = FLASH_FKEY2;
 182              		.loc 1 238 5 is_stmt 1 view .LVU37
 183              		.loc 1 238 17 is_stmt 0 view .LVU38
 184 000e 034A     		ldr	r2, .L16+8
 185 0010 5A60     		str	r2, [r3, #4]
 186              	.L14:
 239:Drivers/STM32F0xx_StdPeriph_Driver/src/stm32f0xx_flash.c ****   }
 240:Drivers/STM32F0xx_StdPeriph_Driver/src/stm32f0xx_flash.c **** }
 187              		.loc 1 240 1 view .LVU39
 188              		@ sp needed
 189 0012 7047     		bx	lr
 190              	.L17:
 191              		.align	2
 192              	.L16:
 193 0014 00200240 		.word	1073881088
 194 0018 23016745 		.word	1164378403
 195 001c AB89EFCD 		.word	-839939669
 196              		.cfi_endproc
 197              	.LFE43:
 199              		.section	.text.FLASH_Lock,"ax",%progbits
 200              		.align	1
 201              		.global	FLASH_Lock
 202              		.syntax unified
 203              		.code	16
 204              		.thumb_func
 205              		.fpu softvfp
 207              	FLASH_Lock:
 208              	.LFB44:
 241:Drivers/STM32F0xx_StdPeriph_Driver/src/stm32f0xx_flash.c **** 
 242:Drivers/STM32F0xx_StdPeriph_Driver/src/stm32f0xx_flash.c **** /**
 243:Drivers/STM32F0xx_StdPeriph_Driver/src/stm32f0xx_flash.c ****   * @brief  Locks the Program memory access.
 244:Drivers/STM32F0xx_StdPeriph_Driver/src/stm32f0xx_flash.c ****   * @param  None
 245:Drivers/STM32F0xx_StdPeriph_Driver/src/stm32f0xx_flash.c ****   * @retval None
 246:Drivers/STM32F0xx_StdPeriph_Driver/src/stm32f0xx_flash.c ****   */
 247:Drivers/STM32F0xx_StdPeriph_Driver/src/stm32f0xx_flash.c **** void FLASH_Lock(void)
 248:Drivers/STM32F0xx_StdPeriph_Driver/src/stm32f0xx_flash.c **** {
 209              		.loc 1 248 1 is_stmt 1 view -0
 210              		.cfi_startproc
 211              		@ args = 0, pretend = 0, frame = 0
 212              		@ frame_needed = 0, uses_anonymous_args = 0
 213              		@ link register save eliminated.
 249:Drivers/STM32F0xx_StdPeriph_Driver/src/stm32f0xx_flash.c ****   /* Set the LOCK Bit to lock the FLASH control register and program memory access */
ARM GAS  /tmp/ccL3hku5.s 			page 9


 250:Drivers/STM32F0xx_StdPeriph_Driver/src/stm32f0xx_flash.c ****   FLASH->CR |= FLASH_CR_LOCK;
 214              		.loc 1 250 3 view .LVU41
 215              		.loc 1 250 13 is_stmt 0 view .LVU42
 216 0000 024A     		ldr	r2, .L19
 217 0002 1369     		ldr	r3, [r2, #16]
 218 0004 8021     		movs	r1, #128
 219 0006 0B43     		orrs	r3, r1
 220 0008 1361     		str	r3, [r2, #16]
 251:Drivers/STM32F0xx_StdPeriph_Driver/src/stm32f0xx_flash.c **** }
 221              		.loc 1 251 1 view .LVU43
 222              		@ sp needed
 223 000a 7047     		bx	lr
 224              	.L20:
 225              		.align	2
 226              	.L19:
 227 000c 00200240 		.word	1073881088
 228              		.cfi_endproc
 229              	.LFE44:
 231              		.section	.text.FLASH_OB_Unlock,"ax",%progbits
 232              		.align	1
 233              		.global	FLASH_OB_Unlock
 234              		.syntax unified
 235              		.code	16
 236              		.thumb_func
 237              		.fpu softvfp
 239              	FLASH_OB_Unlock:
 240              	.LFB49:
 252:Drivers/STM32F0xx_StdPeriph_Driver/src/stm32f0xx_flash.c **** 
 253:Drivers/STM32F0xx_StdPeriph_Driver/src/stm32f0xx_flash.c **** /**
 254:Drivers/STM32F0xx_StdPeriph_Driver/src/stm32f0xx_flash.c ****   * @brief  Erases a specified page in program memory.
 255:Drivers/STM32F0xx_StdPeriph_Driver/src/stm32f0xx_flash.c ****   * @note    To correctly run this function, the FLASH_Unlock() function
 256:Drivers/STM32F0xx_StdPeriph_Driver/src/stm32f0xx_flash.c ****   *           must be called before.
 257:Drivers/STM32F0xx_StdPeriph_Driver/src/stm32f0xx_flash.c ****   *          Call the FLASH_Lock() to disable the flash memory access 
 258:Drivers/STM32F0xx_StdPeriph_Driver/src/stm32f0xx_flash.c ****   *          (recommended to protect the FLASH memory against possible unwanted operation)
 259:Drivers/STM32F0xx_StdPeriph_Driver/src/stm32f0xx_flash.c ****   * @param  Page_Address: The page address in program memory to be erased.
 260:Drivers/STM32F0xx_StdPeriph_Driver/src/stm32f0xx_flash.c ****   * @note   A Page is erased in the Program memory only if the address to load 
 261:Drivers/STM32F0xx_StdPeriph_Driver/src/stm32f0xx_flash.c ****   *         is the start address of a page (multiple of 1024 bytes).
 262:Drivers/STM32F0xx_StdPeriph_Driver/src/stm32f0xx_flash.c ****   * @retval FLASH Status: The returned value can be: 
 263:Drivers/STM32F0xx_StdPeriph_Driver/src/stm32f0xx_flash.c ****   *         FLASH_ERROR_PROGRAM, FLASH_ERROR_WRP, FLASH_COMPLETE or FLASH_TIMEOUT.
 264:Drivers/STM32F0xx_StdPeriph_Driver/src/stm32f0xx_flash.c ****   */
 265:Drivers/STM32F0xx_StdPeriph_Driver/src/stm32f0xx_flash.c **** FLASH_Status FLASH_ErasePage(uint32_t Page_Address)
 266:Drivers/STM32F0xx_StdPeriph_Driver/src/stm32f0xx_flash.c **** {
 267:Drivers/STM32F0xx_StdPeriph_Driver/src/stm32f0xx_flash.c ****   FLASH_Status status = FLASH_COMPLETE;
 268:Drivers/STM32F0xx_StdPeriph_Driver/src/stm32f0xx_flash.c **** 
 269:Drivers/STM32F0xx_StdPeriph_Driver/src/stm32f0xx_flash.c ****   /* Check the parameters */
 270:Drivers/STM32F0xx_StdPeriph_Driver/src/stm32f0xx_flash.c ****   assert_param(IS_FLASH_PROGRAM_ADDRESS(Page_Address));
 271:Drivers/STM32F0xx_StdPeriph_Driver/src/stm32f0xx_flash.c ****  
 272:Drivers/STM32F0xx_StdPeriph_Driver/src/stm32f0xx_flash.c ****   /* Wait for last operation to be completed */
 273:Drivers/STM32F0xx_StdPeriph_Driver/src/stm32f0xx_flash.c ****   status = FLASH_WaitForLastOperation(FLASH_ER_PRG_TIMEOUT);
 274:Drivers/STM32F0xx_StdPeriph_Driver/src/stm32f0xx_flash.c ****   
 275:Drivers/STM32F0xx_StdPeriph_Driver/src/stm32f0xx_flash.c ****   if(status == FLASH_COMPLETE)
 276:Drivers/STM32F0xx_StdPeriph_Driver/src/stm32f0xx_flash.c ****   { 
 277:Drivers/STM32F0xx_StdPeriph_Driver/src/stm32f0xx_flash.c ****     /* If the previous operation is completed, proceed to erase the page */
 278:Drivers/STM32F0xx_StdPeriph_Driver/src/stm32f0xx_flash.c ****     FLASH->CR |= FLASH_CR_PER;
 279:Drivers/STM32F0xx_StdPeriph_Driver/src/stm32f0xx_flash.c ****     FLASH->AR  = Page_Address;
 280:Drivers/STM32F0xx_StdPeriph_Driver/src/stm32f0xx_flash.c ****     FLASH->CR |= FLASH_CR_STRT;
 281:Drivers/STM32F0xx_StdPeriph_Driver/src/stm32f0xx_flash.c ****     
ARM GAS  /tmp/ccL3hku5.s 			page 10


 282:Drivers/STM32F0xx_StdPeriph_Driver/src/stm32f0xx_flash.c ****     /* Wait for last operation to be completed */
 283:Drivers/STM32F0xx_StdPeriph_Driver/src/stm32f0xx_flash.c ****     status = FLASH_WaitForLastOperation(FLASH_ER_PRG_TIMEOUT);
 284:Drivers/STM32F0xx_StdPeriph_Driver/src/stm32f0xx_flash.c ****     
 285:Drivers/STM32F0xx_StdPeriph_Driver/src/stm32f0xx_flash.c ****     /* Disable the PER Bit */
 286:Drivers/STM32F0xx_StdPeriph_Driver/src/stm32f0xx_flash.c ****     FLASH->CR &= ~FLASH_CR_PER;
 287:Drivers/STM32F0xx_StdPeriph_Driver/src/stm32f0xx_flash.c ****   }
 288:Drivers/STM32F0xx_StdPeriph_Driver/src/stm32f0xx_flash.c ****     
 289:Drivers/STM32F0xx_StdPeriph_Driver/src/stm32f0xx_flash.c ****   /* Return the Erase Status */
 290:Drivers/STM32F0xx_StdPeriph_Driver/src/stm32f0xx_flash.c ****   return status;
 291:Drivers/STM32F0xx_StdPeriph_Driver/src/stm32f0xx_flash.c **** }
 292:Drivers/STM32F0xx_StdPeriph_Driver/src/stm32f0xx_flash.c **** 
 293:Drivers/STM32F0xx_StdPeriph_Driver/src/stm32f0xx_flash.c **** /**
 294:Drivers/STM32F0xx_StdPeriph_Driver/src/stm32f0xx_flash.c ****   * @brief  Erases all FLASH pages.
 295:Drivers/STM32F0xx_StdPeriph_Driver/src/stm32f0xx_flash.c ****   * @note    To correctly run this function, the FLASH_Unlock() function
 296:Drivers/STM32F0xx_StdPeriph_Driver/src/stm32f0xx_flash.c ****   *           must be called before.
 297:Drivers/STM32F0xx_StdPeriph_Driver/src/stm32f0xx_flash.c ****   *          Call the FLASH_Lock() to disable the flash memory access 
 298:Drivers/STM32F0xx_StdPeriph_Driver/src/stm32f0xx_flash.c ****   *          (recommended to protect the FLASH memory against possible unwanted operation)
 299:Drivers/STM32F0xx_StdPeriph_Driver/src/stm32f0xx_flash.c ****   * @param  None
 300:Drivers/STM32F0xx_StdPeriph_Driver/src/stm32f0xx_flash.c ****   * @retval FLASH Status: The returned value can be: FLASH_ERROR_PG,
 301:Drivers/STM32F0xx_StdPeriph_Driver/src/stm32f0xx_flash.c ****   *         FLASH_ERROR_WRP, FLASH_COMPLETE or FLASH_TIMEOUT.
 302:Drivers/STM32F0xx_StdPeriph_Driver/src/stm32f0xx_flash.c ****   */
 303:Drivers/STM32F0xx_StdPeriph_Driver/src/stm32f0xx_flash.c **** FLASH_Status FLASH_EraseAllPages(void)
 304:Drivers/STM32F0xx_StdPeriph_Driver/src/stm32f0xx_flash.c **** {
 305:Drivers/STM32F0xx_StdPeriph_Driver/src/stm32f0xx_flash.c ****   FLASH_Status status = FLASH_COMPLETE;
 306:Drivers/STM32F0xx_StdPeriph_Driver/src/stm32f0xx_flash.c **** 
 307:Drivers/STM32F0xx_StdPeriph_Driver/src/stm32f0xx_flash.c ****   /* Wait for last operation to be completed */
 308:Drivers/STM32F0xx_StdPeriph_Driver/src/stm32f0xx_flash.c ****   status = FLASH_WaitForLastOperation(FLASH_ER_PRG_TIMEOUT);
 309:Drivers/STM32F0xx_StdPeriph_Driver/src/stm32f0xx_flash.c ****   
 310:Drivers/STM32F0xx_StdPeriph_Driver/src/stm32f0xx_flash.c ****   if(status == FLASH_COMPLETE)
 311:Drivers/STM32F0xx_StdPeriph_Driver/src/stm32f0xx_flash.c ****   {
 312:Drivers/STM32F0xx_StdPeriph_Driver/src/stm32f0xx_flash.c ****     /* if the previous operation is completed, proceed to erase all pages */
 313:Drivers/STM32F0xx_StdPeriph_Driver/src/stm32f0xx_flash.c ****      FLASH->CR |= FLASH_CR_MER;
 314:Drivers/STM32F0xx_StdPeriph_Driver/src/stm32f0xx_flash.c ****      FLASH->CR |= FLASH_CR_STRT;
 315:Drivers/STM32F0xx_StdPeriph_Driver/src/stm32f0xx_flash.c ****     
 316:Drivers/STM32F0xx_StdPeriph_Driver/src/stm32f0xx_flash.c ****     /* Wait for last operation to be completed */
 317:Drivers/STM32F0xx_StdPeriph_Driver/src/stm32f0xx_flash.c ****     status = FLASH_WaitForLastOperation(FLASH_ER_PRG_TIMEOUT);
 318:Drivers/STM32F0xx_StdPeriph_Driver/src/stm32f0xx_flash.c **** 
 319:Drivers/STM32F0xx_StdPeriph_Driver/src/stm32f0xx_flash.c ****     /* Disable the MER Bit */
 320:Drivers/STM32F0xx_StdPeriph_Driver/src/stm32f0xx_flash.c ****     FLASH->CR &= ~FLASH_CR_MER;
 321:Drivers/STM32F0xx_StdPeriph_Driver/src/stm32f0xx_flash.c ****   }
 322:Drivers/STM32F0xx_StdPeriph_Driver/src/stm32f0xx_flash.c **** 
 323:Drivers/STM32F0xx_StdPeriph_Driver/src/stm32f0xx_flash.c ****   /* Return the Erase Status */
 324:Drivers/STM32F0xx_StdPeriph_Driver/src/stm32f0xx_flash.c ****   return status;
 325:Drivers/STM32F0xx_StdPeriph_Driver/src/stm32f0xx_flash.c **** }
 326:Drivers/STM32F0xx_StdPeriph_Driver/src/stm32f0xx_flash.c **** 
 327:Drivers/STM32F0xx_StdPeriph_Driver/src/stm32f0xx_flash.c **** /**
 328:Drivers/STM32F0xx_StdPeriph_Driver/src/stm32f0xx_flash.c ****   * @brief  Programs a word at a specified address.
 329:Drivers/STM32F0xx_StdPeriph_Driver/src/stm32f0xx_flash.c ****   * @note    To correctly run this function, the FLASH_Unlock() function
 330:Drivers/STM32F0xx_StdPeriph_Driver/src/stm32f0xx_flash.c ****   *           must be called before.
 331:Drivers/STM32F0xx_StdPeriph_Driver/src/stm32f0xx_flash.c ****   *          Call the FLASH_Lock() to disable the flash memory access 
 332:Drivers/STM32F0xx_StdPeriph_Driver/src/stm32f0xx_flash.c ****   *          (recommended to protect the FLASH memory against possible unwanted operation)
 333:Drivers/STM32F0xx_StdPeriph_Driver/src/stm32f0xx_flash.c ****   * @param  Address: specifies the address to be programmed.
 334:Drivers/STM32F0xx_StdPeriph_Driver/src/stm32f0xx_flash.c ****   * @param  Data: specifies the data to be programmed.
 335:Drivers/STM32F0xx_StdPeriph_Driver/src/stm32f0xx_flash.c ****   * @retval FLASH Status: The returned value can be: FLASH_ERROR_PG,
 336:Drivers/STM32F0xx_StdPeriph_Driver/src/stm32f0xx_flash.c ****   *         FLASH_ERROR_WRP, FLASH_COMPLETE or FLASH_TIMEOUT. 
 337:Drivers/STM32F0xx_StdPeriph_Driver/src/stm32f0xx_flash.c ****   */
 338:Drivers/STM32F0xx_StdPeriph_Driver/src/stm32f0xx_flash.c **** FLASH_Status FLASH_ProgramWord(uint32_t Address, uint32_t Data)
ARM GAS  /tmp/ccL3hku5.s 			page 11


 339:Drivers/STM32F0xx_StdPeriph_Driver/src/stm32f0xx_flash.c **** {
 340:Drivers/STM32F0xx_StdPeriph_Driver/src/stm32f0xx_flash.c ****   FLASH_Status status = FLASH_COMPLETE;
 341:Drivers/STM32F0xx_StdPeriph_Driver/src/stm32f0xx_flash.c ****   __IO uint32_t tmp = 0;
 342:Drivers/STM32F0xx_StdPeriph_Driver/src/stm32f0xx_flash.c **** 
 343:Drivers/STM32F0xx_StdPeriph_Driver/src/stm32f0xx_flash.c ****   /* Check the parameters */
 344:Drivers/STM32F0xx_StdPeriph_Driver/src/stm32f0xx_flash.c ****   assert_param(IS_FLASH_PROGRAM_ADDRESS(Address));
 345:Drivers/STM32F0xx_StdPeriph_Driver/src/stm32f0xx_flash.c **** 
 346:Drivers/STM32F0xx_StdPeriph_Driver/src/stm32f0xx_flash.c ****   /* Wait for last operation to be completed */
 347:Drivers/STM32F0xx_StdPeriph_Driver/src/stm32f0xx_flash.c ****   status = FLASH_WaitForLastOperation(FLASH_ER_PRG_TIMEOUT);
 348:Drivers/STM32F0xx_StdPeriph_Driver/src/stm32f0xx_flash.c ****   
 349:Drivers/STM32F0xx_StdPeriph_Driver/src/stm32f0xx_flash.c ****   if(status == FLASH_COMPLETE)
 350:Drivers/STM32F0xx_StdPeriph_Driver/src/stm32f0xx_flash.c ****   {
 351:Drivers/STM32F0xx_StdPeriph_Driver/src/stm32f0xx_flash.c ****     /* If the previous operation is completed, proceed to program the new first 
 352:Drivers/STM32F0xx_StdPeriph_Driver/src/stm32f0xx_flash.c ****     half word */
 353:Drivers/STM32F0xx_StdPeriph_Driver/src/stm32f0xx_flash.c ****     FLASH->CR |= FLASH_CR_PG;
 354:Drivers/STM32F0xx_StdPeriph_Driver/src/stm32f0xx_flash.c ****   
 355:Drivers/STM32F0xx_StdPeriph_Driver/src/stm32f0xx_flash.c ****     *(__IO uint16_t*)Address = (uint16_t)Data;
 356:Drivers/STM32F0xx_StdPeriph_Driver/src/stm32f0xx_flash.c ****     
 357:Drivers/STM32F0xx_StdPeriph_Driver/src/stm32f0xx_flash.c ****     /* Wait for last operation to be completed */
 358:Drivers/STM32F0xx_StdPeriph_Driver/src/stm32f0xx_flash.c ****     status = FLASH_WaitForLastOperation(FLASH_ER_PRG_TIMEOUT);
 359:Drivers/STM32F0xx_StdPeriph_Driver/src/stm32f0xx_flash.c ****  
 360:Drivers/STM32F0xx_StdPeriph_Driver/src/stm32f0xx_flash.c ****     if(status == FLASH_COMPLETE)
 361:Drivers/STM32F0xx_StdPeriph_Driver/src/stm32f0xx_flash.c ****     {
 362:Drivers/STM32F0xx_StdPeriph_Driver/src/stm32f0xx_flash.c ****       /* If the previous operation is completed, proceed to program the new second 
 363:Drivers/STM32F0xx_StdPeriph_Driver/src/stm32f0xx_flash.c ****       half word */
 364:Drivers/STM32F0xx_StdPeriph_Driver/src/stm32f0xx_flash.c ****       tmp = Address + 2;
 365:Drivers/STM32F0xx_StdPeriph_Driver/src/stm32f0xx_flash.c **** 
 366:Drivers/STM32F0xx_StdPeriph_Driver/src/stm32f0xx_flash.c ****       *(__IO uint16_t*) tmp = Data >> 16;
 367:Drivers/STM32F0xx_StdPeriph_Driver/src/stm32f0xx_flash.c ****     
 368:Drivers/STM32F0xx_StdPeriph_Driver/src/stm32f0xx_flash.c ****       /* Wait for last operation to be completed */
 369:Drivers/STM32F0xx_StdPeriph_Driver/src/stm32f0xx_flash.c ****       status = FLASH_WaitForLastOperation(FLASH_ER_PRG_TIMEOUT);
 370:Drivers/STM32F0xx_StdPeriph_Driver/src/stm32f0xx_flash.c ****         
 371:Drivers/STM32F0xx_StdPeriph_Driver/src/stm32f0xx_flash.c ****       /* Disable the PG Bit */
 372:Drivers/STM32F0xx_StdPeriph_Driver/src/stm32f0xx_flash.c ****       FLASH->CR &= ~FLASH_CR_PG;
 373:Drivers/STM32F0xx_StdPeriph_Driver/src/stm32f0xx_flash.c ****     }
 374:Drivers/STM32F0xx_StdPeriph_Driver/src/stm32f0xx_flash.c ****     else
 375:Drivers/STM32F0xx_StdPeriph_Driver/src/stm32f0xx_flash.c ****     {
 376:Drivers/STM32F0xx_StdPeriph_Driver/src/stm32f0xx_flash.c ****       /* Disable the PG Bit */
 377:Drivers/STM32F0xx_StdPeriph_Driver/src/stm32f0xx_flash.c ****       FLASH->CR &= ~FLASH_CR_PG;
 378:Drivers/STM32F0xx_StdPeriph_Driver/src/stm32f0xx_flash.c ****     }
 379:Drivers/STM32F0xx_StdPeriph_Driver/src/stm32f0xx_flash.c ****   }
 380:Drivers/STM32F0xx_StdPeriph_Driver/src/stm32f0xx_flash.c ****    
 381:Drivers/STM32F0xx_StdPeriph_Driver/src/stm32f0xx_flash.c ****   /* Return the Program Status */
 382:Drivers/STM32F0xx_StdPeriph_Driver/src/stm32f0xx_flash.c ****   return status;
 383:Drivers/STM32F0xx_StdPeriph_Driver/src/stm32f0xx_flash.c **** }
 384:Drivers/STM32F0xx_StdPeriph_Driver/src/stm32f0xx_flash.c **** 
 385:Drivers/STM32F0xx_StdPeriph_Driver/src/stm32f0xx_flash.c **** /**
 386:Drivers/STM32F0xx_StdPeriph_Driver/src/stm32f0xx_flash.c ****   * @brief  Programs a half word at a specified address.
 387:Drivers/STM32F0xx_StdPeriph_Driver/src/stm32f0xx_flash.c ****   * @note    To correctly run this function, the FLASH_Unlock() function
 388:Drivers/STM32F0xx_StdPeriph_Driver/src/stm32f0xx_flash.c ****   *           must be called before.
 389:Drivers/STM32F0xx_StdPeriph_Driver/src/stm32f0xx_flash.c ****   *          Call the FLASH_Lock() to disable the flash memory access 
 390:Drivers/STM32F0xx_StdPeriph_Driver/src/stm32f0xx_flash.c ****   *          (recommended to protect the FLASH memory against possible unwanted operation)
 391:Drivers/STM32F0xx_StdPeriph_Driver/src/stm32f0xx_flash.c ****   * @param  Address: specifies the address to be programmed.
 392:Drivers/STM32F0xx_StdPeriph_Driver/src/stm32f0xx_flash.c ****   * @param  Data: specifies the data to be programmed.
 393:Drivers/STM32F0xx_StdPeriph_Driver/src/stm32f0xx_flash.c ****   * @retval FLASH Status: The returned value can be: FLASH_ERROR_PG,
 394:Drivers/STM32F0xx_StdPeriph_Driver/src/stm32f0xx_flash.c ****   *         FLASH_ERROR_WRP, FLASH_COMPLETE or FLASH_TIMEOUT. 
 395:Drivers/STM32F0xx_StdPeriph_Driver/src/stm32f0xx_flash.c ****   */
ARM GAS  /tmp/ccL3hku5.s 			page 12


 396:Drivers/STM32F0xx_StdPeriph_Driver/src/stm32f0xx_flash.c **** FLASH_Status FLASH_ProgramHalfWord(uint32_t Address, uint16_t Data)
 397:Drivers/STM32F0xx_StdPeriph_Driver/src/stm32f0xx_flash.c **** {
 398:Drivers/STM32F0xx_StdPeriph_Driver/src/stm32f0xx_flash.c ****   FLASH_Status status = FLASH_COMPLETE;
 399:Drivers/STM32F0xx_StdPeriph_Driver/src/stm32f0xx_flash.c **** 
 400:Drivers/STM32F0xx_StdPeriph_Driver/src/stm32f0xx_flash.c ****   /* Check the parameters */
 401:Drivers/STM32F0xx_StdPeriph_Driver/src/stm32f0xx_flash.c ****   assert_param(IS_FLASH_PROGRAM_ADDRESS(Address));
 402:Drivers/STM32F0xx_StdPeriph_Driver/src/stm32f0xx_flash.c **** 
 403:Drivers/STM32F0xx_StdPeriph_Driver/src/stm32f0xx_flash.c ****   /* Wait for last operation to be completed */
 404:Drivers/STM32F0xx_StdPeriph_Driver/src/stm32f0xx_flash.c ****   status = FLASH_WaitForLastOperation(FLASH_ER_PRG_TIMEOUT);
 405:Drivers/STM32F0xx_StdPeriph_Driver/src/stm32f0xx_flash.c ****   
 406:Drivers/STM32F0xx_StdPeriph_Driver/src/stm32f0xx_flash.c ****   if(status == FLASH_COMPLETE)
 407:Drivers/STM32F0xx_StdPeriph_Driver/src/stm32f0xx_flash.c ****   {
 408:Drivers/STM32F0xx_StdPeriph_Driver/src/stm32f0xx_flash.c ****     /* If the previous operation is completed, proceed to program the new data */
 409:Drivers/STM32F0xx_StdPeriph_Driver/src/stm32f0xx_flash.c ****     FLASH->CR |= FLASH_CR_PG;
 410:Drivers/STM32F0xx_StdPeriph_Driver/src/stm32f0xx_flash.c ****   
 411:Drivers/STM32F0xx_StdPeriph_Driver/src/stm32f0xx_flash.c ****     *(__IO uint16_t*)Address = Data;
 412:Drivers/STM32F0xx_StdPeriph_Driver/src/stm32f0xx_flash.c **** 
 413:Drivers/STM32F0xx_StdPeriph_Driver/src/stm32f0xx_flash.c ****     /* Wait for last operation to be completed */
 414:Drivers/STM32F0xx_StdPeriph_Driver/src/stm32f0xx_flash.c ****     status = FLASH_WaitForLastOperation(FLASH_ER_PRG_TIMEOUT);
 415:Drivers/STM32F0xx_StdPeriph_Driver/src/stm32f0xx_flash.c ****     
 416:Drivers/STM32F0xx_StdPeriph_Driver/src/stm32f0xx_flash.c ****     /* Disable the PG Bit */
 417:Drivers/STM32F0xx_StdPeriph_Driver/src/stm32f0xx_flash.c ****     FLASH->CR &= ~FLASH_CR_PG;
 418:Drivers/STM32F0xx_StdPeriph_Driver/src/stm32f0xx_flash.c ****   } 
 419:Drivers/STM32F0xx_StdPeriph_Driver/src/stm32f0xx_flash.c ****   
 420:Drivers/STM32F0xx_StdPeriph_Driver/src/stm32f0xx_flash.c ****   /* Return the Program Status */
 421:Drivers/STM32F0xx_StdPeriph_Driver/src/stm32f0xx_flash.c ****   return status;
 422:Drivers/STM32F0xx_StdPeriph_Driver/src/stm32f0xx_flash.c **** }
 423:Drivers/STM32F0xx_StdPeriph_Driver/src/stm32f0xx_flash.c **** 
 424:Drivers/STM32F0xx_StdPeriph_Driver/src/stm32f0xx_flash.c **** /**
 425:Drivers/STM32F0xx_StdPeriph_Driver/src/stm32f0xx_flash.c ****   * @}
 426:Drivers/STM32F0xx_StdPeriph_Driver/src/stm32f0xx_flash.c ****   */
 427:Drivers/STM32F0xx_StdPeriph_Driver/src/stm32f0xx_flash.c ****   
 428:Drivers/STM32F0xx_StdPeriph_Driver/src/stm32f0xx_flash.c **** /** @defgroup FLASH_Group3 Option Bytes Programming functions
 429:Drivers/STM32F0xx_StdPeriph_Driver/src/stm32f0xx_flash.c ****  *  @brief   Option Bytes Programming functions 
 430:Drivers/STM32F0xx_StdPeriph_Driver/src/stm32f0xx_flash.c ****  *
 431:Drivers/STM32F0xx_StdPeriph_Driver/src/stm32f0xx_flash.c **** @verbatim   
 432:Drivers/STM32F0xx_StdPeriph_Driver/src/stm32f0xx_flash.c ****  ===============================================================================
 433:Drivers/STM32F0xx_StdPeriph_Driver/src/stm32f0xx_flash.c ****                 ##### Option Bytes Programming functions #####
 434:Drivers/STM32F0xx_StdPeriph_Driver/src/stm32f0xx_flash.c ****  ===============================================================================
 435:Drivers/STM32F0xx_StdPeriph_Driver/src/stm32f0xx_flash.c **** 
 436:Drivers/STM32F0xx_StdPeriph_Driver/src/stm32f0xx_flash.c ****     [..] The FLASH_Option Bytes Programming_functions, includes the following functions:
 437:Drivers/STM32F0xx_StdPeriph_Driver/src/stm32f0xx_flash.c ****        (+) void FLASH_OB_Unlock(void);
 438:Drivers/STM32F0xx_StdPeriph_Driver/src/stm32f0xx_flash.c ****        (+) void FLASH_OB_Lock(void);
 439:Drivers/STM32F0xx_StdPeriph_Driver/src/stm32f0xx_flash.c ****        (+) void FLASH_OB_Launch(void);
 440:Drivers/STM32F0xx_StdPeriph_Driver/src/stm32f0xx_flash.c ****        (+) FLASH_Status FLASH_OB_Erase(void);
 441:Drivers/STM32F0xx_StdPeriph_Driver/src/stm32f0xx_flash.c ****        (+) FLASH_Status FLASH_OB_WRPConfig(uint32_t OB_WRP, FunctionalState NewState);
 442:Drivers/STM32F0xx_StdPeriph_Driver/src/stm32f0xx_flash.c ****        (+) FLASH_Status FLASH_OB_RDPConfig(uint8_t OB_RDP);
 443:Drivers/STM32F0xx_StdPeriph_Driver/src/stm32f0xx_flash.c ****        (+) FLASH_Status FLASH_OB_UserConfig(uint8_t OB_IWDG, uint8_t OB_STOP, uint8_t OB_STDBY);
 444:Drivers/STM32F0xx_StdPeriph_Driver/src/stm32f0xx_flash.c ****        (+) FLASH_Status FLASH_OB_BOOTConfig(uint8_t OB_BOOT1);
 445:Drivers/STM32F0xx_StdPeriph_Driver/src/stm32f0xx_flash.c ****        (+) FLASH_Status FLASH_OB_VDDAConfig(uint8_t OB_VDDA_ANALOG);
 446:Drivers/STM32F0xx_StdPeriph_Driver/src/stm32f0xx_flash.c ****        (+) FLASH_Status FLASH_OB_WriteUser(uint8_t OB_USER);
 447:Drivers/STM32F0xx_StdPeriph_Driver/src/stm32f0xx_flash.c **** 	   (+) FLASH_ProgramOptionByteData(uint32_t Address, uint8_t Data);
 448:Drivers/STM32F0xx_StdPeriph_Driver/src/stm32f0xx_flash.c ****        (+) uint8_t FLASH_OB_GetUser(void);
 449:Drivers/STM32F0xx_StdPeriph_Driver/src/stm32f0xx_flash.c ****        (+) uint32_t FLASH_OB_GetWRP(void);
 450:Drivers/STM32F0xx_StdPeriph_Driver/src/stm32f0xx_flash.c ****        (+) FlagStatus FLASH_OB_GetRDP(void);
 451:Drivers/STM32F0xx_StdPeriph_Driver/src/stm32f0xx_flash.c **** 
 452:Drivers/STM32F0xx_StdPeriph_Driver/src/stm32f0xx_flash.c ****     [..] Any operation of erase or program should follow these steps:
ARM GAS  /tmp/ccL3hku5.s 			page 13


 453:Drivers/STM32F0xx_StdPeriph_Driver/src/stm32f0xx_flash.c **** 
 454:Drivers/STM32F0xx_StdPeriph_Driver/src/stm32f0xx_flash.c ****    (#) Call the FLASH_OB_Unlock() function to enable the Option Bytes registers access
 455:Drivers/STM32F0xx_StdPeriph_Driver/src/stm32f0xx_flash.c **** 
 456:Drivers/STM32F0xx_StdPeriph_Driver/src/stm32f0xx_flash.c ****    (#) Call one or several functions to program the desired option bytes 
 457:Drivers/STM32F0xx_StdPeriph_Driver/src/stm32f0xx_flash.c ****       (++) FLASH_Status FLASH_OB_RDPConfig(uint8_t OB_RDP) => to set the desired read Protection Le
 458:Drivers/STM32F0xx_StdPeriph_Driver/src/stm32f0xx_flash.c ****       (++) FLASH_Status FLASH_OB_WRPConfig(uint32_t OB_WRP, FunctionalState NewState) 
 459:Drivers/STM32F0xx_StdPeriph_Driver/src/stm32f0xx_flash.c ****            => to Enable/Disable the desired sector write protection
 460:Drivers/STM32F0xx_StdPeriph_Driver/src/stm32f0xx_flash.c ****       (++) FLASH_Status FLASH_OB_UserConfig(uint8_t OB_IWDG, uint8_t OB_STOP, uint8_t OB_STDBY) 
 461:Drivers/STM32F0xx_StdPeriph_Driver/src/stm32f0xx_flash.c ****            => to configure the user option Bytes: IWDG, STOP and the Standby.
 462:Drivers/STM32F0xx_StdPeriph_Driver/src/stm32f0xx_flash.c ****       (++) FLASH_Status FLASH_OB_BOOTConfig(uint8_t OB_BOOT1)
 463:Drivers/STM32F0xx_StdPeriph_Driver/src/stm32f0xx_flash.c ****            => to set or reset BOOT1 
 464:Drivers/STM32F0xx_StdPeriph_Driver/src/stm32f0xx_flash.c ****       (++) FLASH_Status FLASH_OB_VDDAConfig(uint8_t OB_VDDA_ANALOG) 
 465:Drivers/STM32F0xx_StdPeriph_Driver/src/stm32f0xx_flash.c ****            => to enable or disable the VDDA Analog Monitoring 			 
 466:Drivers/STM32F0xx_StdPeriph_Driver/src/stm32f0xx_flash.c ****       (++) You can write all User Options bytes at once using a single function
 467:Drivers/STM32F0xx_StdPeriph_Driver/src/stm32f0xx_flash.c ****            by calling FLASH_Status FLASH_OB_WriteUser(uint8_t OB_USER)
 468:Drivers/STM32F0xx_StdPeriph_Driver/src/stm32f0xx_flash.c **** 	  (++) FLASH_ProgramOptionByteData(uint32_t Address, uint8_t Data) to program the 
 469:Drivers/STM32F0xx_StdPeriph_Driver/src/stm32f0xx_flash.c **** 	       two half word in the option bytes
 470:Drivers/STM32F0xx_StdPeriph_Driver/src/stm32f0xx_flash.c **** 
 471:Drivers/STM32F0xx_StdPeriph_Driver/src/stm32f0xx_flash.c ****    (#) Once all needed option bytes to be programmed are correctly written, call the
 472:Drivers/STM32F0xx_StdPeriph_Driver/src/stm32f0xx_flash.c ****       FLASH_OB_Launch(void) function to launch the Option Bytes programming process.
 473:Drivers/STM32F0xx_StdPeriph_Driver/src/stm32f0xx_flash.c **** 
 474:Drivers/STM32F0xx_StdPeriph_Driver/src/stm32f0xx_flash.c ****    (#) Call the FLASH_OB_Lock() to disable the Option Bytes registers access (recommended
 475:Drivers/STM32F0xx_StdPeriph_Driver/src/stm32f0xx_flash.c ****       to protect the option Bytes against possible unwanted operations)
 476:Drivers/STM32F0xx_StdPeriph_Driver/src/stm32f0xx_flash.c **** 
 477:Drivers/STM32F0xx_StdPeriph_Driver/src/stm32f0xx_flash.c **** @endverbatim
 478:Drivers/STM32F0xx_StdPeriph_Driver/src/stm32f0xx_flash.c ****   * @{
 479:Drivers/STM32F0xx_StdPeriph_Driver/src/stm32f0xx_flash.c ****   */
 480:Drivers/STM32F0xx_StdPeriph_Driver/src/stm32f0xx_flash.c **** 
 481:Drivers/STM32F0xx_StdPeriph_Driver/src/stm32f0xx_flash.c **** /**
 482:Drivers/STM32F0xx_StdPeriph_Driver/src/stm32f0xx_flash.c ****   * @brief  Unlocks the option bytes block access.
 483:Drivers/STM32F0xx_StdPeriph_Driver/src/stm32f0xx_flash.c ****   * @param  None
 484:Drivers/STM32F0xx_StdPeriph_Driver/src/stm32f0xx_flash.c ****   * @retval None
 485:Drivers/STM32F0xx_StdPeriph_Driver/src/stm32f0xx_flash.c ****   */
 486:Drivers/STM32F0xx_StdPeriph_Driver/src/stm32f0xx_flash.c **** void FLASH_OB_Unlock(void)
 487:Drivers/STM32F0xx_StdPeriph_Driver/src/stm32f0xx_flash.c **** {
 241              		.loc 1 487 1 is_stmt 1 view -0
 242              		.cfi_startproc
 243              		@ args = 0, pretend = 0, frame = 0
 244              		@ frame_needed = 0, uses_anonymous_args = 0
 245              		@ link register save eliminated.
 488:Drivers/STM32F0xx_StdPeriph_Driver/src/stm32f0xx_flash.c ****   if((FLASH->CR & FLASH_CR_OPTWRE) == RESET)
 246              		.loc 1 488 3 view .LVU45
 247              		.loc 1 488 12 is_stmt 0 view .LVU46
 248 0000 044B     		ldr	r3, .L23
 249 0002 1B69     		ldr	r3, [r3, #16]
 250              		.loc 1 488 5 view .LVU47
 251 0004 9B05     		lsls	r3, r3, #22
 252 0006 04D4     		bmi	.L21
 489:Drivers/STM32F0xx_StdPeriph_Driver/src/stm32f0xx_flash.c ****   { 
 490:Drivers/STM32F0xx_StdPeriph_Driver/src/stm32f0xx_flash.c ****     /* Unlocking the option bytes block access */
 491:Drivers/STM32F0xx_StdPeriph_Driver/src/stm32f0xx_flash.c ****     FLASH->OPTKEYR = FLASH_OPTKEY1;
 253              		.loc 1 491 5 is_stmt 1 view .LVU48
 254              		.loc 1 491 20 is_stmt 0 view .LVU49
 255 0008 024B     		ldr	r3, .L23
 256 000a 034A     		ldr	r2, .L23+4
 257 000c 9A60     		str	r2, [r3, #8]
 492:Drivers/STM32F0xx_StdPeriph_Driver/src/stm32f0xx_flash.c ****     FLASH->OPTKEYR = FLASH_OPTKEY2;
ARM GAS  /tmp/ccL3hku5.s 			page 14


 258              		.loc 1 492 5 is_stmt 1 view .LVU50
 259              		.loc 1 492 20 is_stmt 0 view .LVU51
 260 000e 034A     		ldr	r2, .L23+8
 261 0010 9A60     		str	r2, [r3, #8]
 262              	.L21:
 493:Drivers/STM32F0xx_StdPeriph_Driver/src/stm32f0xx_flash.c ****   }
 494:Drivers/STM32F0xx_StdPeriph_Driver/src/stm32f0xx_flash.c **** }
 263              		.loc 1 494 1 view .LVU52
 264              		@ sp needed
 265 0012 7047     		bx	lr
 266              	.L24:
 267              		.align	2
 268              	.L23:
 269 0014 00200240 		.word	1073881088
 270 0018 23016745 		.word	1164378403
 271 001c AB89EFCD 		.word	-839939669
 272              		.cfi_endproc
 273              	.LFE49:
 275              		.section	.text.FLASH_OB_Lock,"ax",%progbits
 276              		.align	1
 277              		.global	FLASH_OB_Lock
 278              		.syntax unified
 279              		.code	16
 280              		.thumb_func
 281              		.fpu softvfp
 283              	FLASH_OB_Lock:
 284              	.LFB50:
 495:Drivers/STM32F0xx_StdPeriph_Driver/src/stm32f0xx_flash.c **** 
 496:Drivers/STM32F0xx_StdPeriph_Driver/src/stm32f0xx_flash.c **** /**
 497:Drivers/STM32F0xx_StdPeriph_Driver/src/stm32f0xx_flash.c ****   * @brief  Locks the option bytes block access.
 498:Drivers/STM32F0xx_StdPeriph_Driver/src/stm32f0xx_flash.c ****   * @param  None
 499:Drivers/STM32F0xx_StdPeriph_Driver/src/stm32f0xx_flash.c ****   * @retval None
 500:Drivers/STM32F0xx_StdPeriph_Driver/src/stm32f0xx_flash.c ****   */
 501:Drivers/STM32F0xx_StdPeriph_Driver/src/stm32f0xx_flash.c **** void FLASH_OB_Lock(void)
 502:Drivers/STM32F0xx_StdPeriph_Driver/src/stm32f0xx_flash.c **** {
 285              		.loc 1 502 1 is_stmt 1 view -0
 286              		.cfi_startproc
 287              		@ args = 0, pretend = 0, frame = 0
 288              		@ frame_needed = 0, uses_anonymous_args = 0
 289              		@ link register save eliminated.
 503:Drivers/STM32F0xx_StdPeriph_Driver/src/stm32f0xx_flash.c ****   /* Set the OPTWREN Bit to lock the option bytes block access */
 504:Drivers/STM32F0xx_StdPeriph_Driver/src/stm32f0xx_flash.c ****   FLASH->CR &= ~FLASH_CR_OPTWRE;
 290              		.loc 1 504 3 view .LVU54
 291              		.loc 1 504 13 is_stmt 0 view .LVU55
 292 0000 024A     		ldr	r2, .L26
 293 0002 1369     		ldr	r3, [r2, #16]
 294 0004 0249     		ldr	r1, .L26+4
 295 0006 0B40     		ands	r3, r1
 296 0008 1361     		str	r3, [r2, #16]
 505:Drivers/STM32F0xx_StdPeriph_Driver/src/stm32f0xx_flash.c **** }
 297              		.loc 1 505 1 view .LVU56
 298              		@ sp needed
 299 000a 7047     		bx	lr
 300              	.L27:
 301              		.align	2
 302              	.L26:
 303 000c 00200240 		.word	1073881088
ARM GAS  /tmp/ccL3hku5.s 			page 15


 304 0010 FFFDFFFF 		.word	-513
 305              		.cfi_endproc
 306              	.LFE50:
 308              		.section	.text.FLASH_OB_Launch,"ax",%progbits
 309              		.align	1
 310              		.global	FLASH_OB_Launch
 311              		.syntax unified
 312              		.code	16
 313              		.thumb_func
 314              		.fpu softvfp
 316              	FLASH_OB_Launch:
 317              	.LFB51:
 506:Drivers/STM32F0xx_StdPeriph_Driver/src/stm32f0xx_flash.c **** 
 507:Drivers/STM32F0xx_StdPeriph_Driver/src/stm32f0xx_flash.c **** /**
 508:Drivers/STM32F0xx_StdPeriph_Driver/src/stm32f0xx_flash.c ****   * @brief  Launch the option byte loading.
 509:Drivers/STM32F0xx_StdPeriph_Driver/src/stm32f0xx_flash.c ****   * @param  None
 510:Drivers/STM32F0xx_StdPeriph_Driver/src/stm32f0xx_flash.c ****   * @retval None
 511:Drivers/STM32F0xx_StdPeriph_Driver/src/stm32f0xx_flash.c ****   */
 512:Drivers/STM32F0xx_StdPeriph_Driver/src/stm32f0xx_flash.c **** void FLASH_OB_Launch(void)
 513:Drivers/STM32F0xx_StdPeriph_Driver/src/stm32f0xx_flash.c **** {
 318              		.loc 1 513 1 is_stmt 1 view -0
 319              		.cfi_startproc
 320              		@ args = 0, pretend = 0, frame = 0
 321              		@ frame_needed = 0, uses_anonymous_args = 0
 322              		@ link register save eliminated.
 514:Drivers/STM32F0xx_StdPeriph_Driver/src/stm32f0xx_flash.c ****   /* Set the OBL_Launch bit to launch the option byte loading */
 515:Drivers/STM32F0xx_StdPeriph_Driver/src/stm32f0xx_flash.c ****   FLASH->CR |= FLASH_CR_OBL_LAUNCH;
 323              		.loc 1 515 3 view .LVU58
 324              		.loc 1 515 13 is_stmt 0 view .LVU59
 325 0000 034A     		ldr	r2, .L29
 326 0002 1169     		ldr	r1, [r2, #16]
 327 0004 8023     		movs	r3, #128
 328 0006 9B01     		lsls	r3, r3, #6
 329 0008 0B43     		orrs	r3, r1
 330 000a 1361     		str	r3, [r2, #16]
 516:Drivers/STM32F0xx_StdPeriph_Driver/src/stm32f0xx_flash.c **** }
 331              		.loc 1 516 1 view .LVU60
 332              		@ sp needed
 333 000c 7047     		bx	lr
 334              	.L30:
 335 000e C046     		.align	2
 336              	.L29:
 337 0010 00200240 		.word	1073881088
 338              		.cfi_endproc
 339              	.LFE51:
 341              		.section	.text.FLASH_OB_GetUser,"ax",%progbits
 342              		.align	1
 343              		.global	FLASH_OB_GetUser
 344              		.syntax unified
 345              		.code	16
 346              		.thumb_func
 347              		.fpu softvfp
 349              	FLASH_OB_GetUser:
 350              	.LFB61:
 517:Drivers/STM32F0xx_StdPeriph_Driver/src/stm32f0xx_flash.c **** 
 518:Drivers/STM32F0xx_StdPeriph_Driver/src/stm32f0xx_flash.c **** /**
 519:Drivers/STM32F0xx_StdPeriph_Driver/src/stm32f0xx_flash.c ****   * @brief  Erases the FLASH option bytes.
ARM GAS  /tmp/ccL3hku5.s 			page 16


 520:Drivers/STM32F0xx_StdPeriph_Driver/src/stm32f0xx_flash.c ****   * @note    To correctly run this function, the FLASH_OB_Unlock() function
 521:Drivers/STM32F0xx_StdPeriph_Driver/src/stm32f0xx_flash.c ****   *           must be called before.
 522:Drivers/STM32F0xx_StdPeriph_Driver/src/stm32f0xx_flash.c ****   *          Call the FLASH_OB_Lock() to disable the flash control register access and the option b
 523:Drivers/STM32F0xx_StdPeriph_Driver/src/stm32f0xx_flash.c ****   *          (recommended to protect the FLASH memory against possible unwanted operation)
 524:Drivers/STM32F0xx_StdPeriph_Driver/src/stm32f0xx_flash.c ****   * @note   This functions erases all option bytes except the Read protection (RDP).
 525:Drivers/STM32F0xx_StdPeriph_Driver/src/stm32f0xx_flash.c ****   * @param  None
 526:Drivers/STM32F0xx_StdPeriph_Driver/src/stm32f0xx_flash.c ****   * @retval FLASH Status: The returned value can be: FLASH_ERROR_PG,
 527:Drivers/STM32F0xx_StdPeriph_Driver/src/stm32f0xx_flash.c ****   *         FLASH_ERROR_WRP, FLASH_COMPLETE or FLASH_TIMEOUT.
 528:Drivers/STM32F0xx_StdPeriph_Driver/src/stm32f0xx_flash.c ****   */
 529:Drivers/STM32F0xx_StdPeriph_Driver/src/stm32f0xx_flash.c **** FLASH_Status FLASH_OB_Erase(void)
 530:Drivers/STM32F0xx_StdPeriph_Driver/src/stm32f0xx_flash.c **** {
 531:Drivers/STM32F0xx_StdPeriph_Driver/src/stm32f0xx_flash.c ****   uint16_t rdptmp = OB_RDP_Level_0;
 532:Drivers/STM32F0xx_StdPeriph_Driver/src/stm32f0xx_flash.c **** 
 533:Drivers/STM32F0xx_StdPeriph_Driver/src/stm32f0xx_flash.c ****   FLASH_Status status = FLASH_COMPLETE;
 534:Drivers/STM32F0xx_StdPeriph_Driver/src/stm32f0xx_flash.c **** 
 535:Drivers/STM32F0xx_StdPeriph_Driver/src/stm32f0xx_flash.c ****   /* Get the actual read protection Option Byte value */ 
 536:Drivers/STM32F0xx_StdPeriph_Driver/src/stm32f0xx_flash.c ****   if(FLASH_OB_GetRDP() != RESET)
 537:Drivers/STM32F0xx_StdPeriph_Driver/src/stm32f0xx_flash.c ****   {
 538:Drivers/STM32F0xx_StdPeriph_Driver/src/stm32f0xx_flash.c ****     rdptmp = 0x00;  
 539:Drivers/STM32F0xx_StdPeriph_Driver/src/stm32f0xx_flash.c ****   }
 540:Drivers/STM32F0xx_StdPeriph_Driver/src/stm32f0xx_flash.c **** 
 541:Drivers/STM32F0xx_StdPeriph_Driver/src/stm32f0xx_flash.c ****   /* Wait for last operation to be completed */
 542:Drivers/STM32F0xx_StdPeriph_Driver/src/stm32f0xx_flash.c ****   status = FLASH_WaitForLastOperation(FLASH_ER_PRG_TIMEOUT);
 543:Drivers/STM32F0xx_StdPeriph_Driver/src/stm32f0xx_flash.c **** 
 544:Drivers/STM32F0xx_StdPeriph_Driver/src/stm32f0xx_flash.c ****   if(status == FLASH_COMPLETE)
 545:Drivers/STM32F0xx_StdPeriph_Driver/src/stm32f0xx_flash.c ****   {   
 546:Drivers/STM32F0xx_StdPeriph_Driver/src/stm32f0xx_flash.c ****     /* If the previous operation is completed, proceed to erase the option bytes */
 547:Drivers/STM32F0xx_StdPeriph_Driver/src/stm32f0xx_flash.c ****     FLASH->CR |= FLASH_CR_OPTER;
 548:Drivers/STM32F0xx_StdPeriph_Driver/src/stm32f0xx_flash.c ****     FLASH->CR |= FLASH_CR_STRT;
 549:Drivers/STM32F0xx_StdPeriph_Driver/src/stm32f0xx_flash.c **** 
 550:Drivers/STM32F0xx_StdPeriph_Driver/src/stm32f0xx_flash.c ****     /* Wait for last operation to be completed */
 551:Drivers/STM32F0xx_StdPeriph_Driver/src/stm32f0xx_flash.c ****     status = FLASH_WaitForLastOperation(FLASH_ER_PRG_TIMEOUT);
 552:Drivers/STM32F0xx_StdPeriph_Driver/src/stm32f0xx_flash.c ****     
 553:Drivers/STM32F0xx_StdPeriph_Driver/src/stm32f0xx_flash.c ****     if(status == FLASH_COMPLETE)
 554:Drivers/STM32F0xx_StdPeriph_Driver/src/stm32f0xx_flash.c ****     {
 555:Drivers/STM32F0xx_StdPeriph_Driver/src/stm32f0xx_flash.c ****       /* If the erase operation is completed, disable the OPTER Bit */
 556:Drivers/STM32F0xx_StdPeriph_Driver/src/stm32f0xx_flash.c ****       FLASH->CR &= ~FLASH_CR_OPTER;
 557:Drivers/STM32F0xx_StdPeriph_Driver/src/stm32f0xx_flash.c ****        
 558:Drivers/STM32F0xx_StdPeriph_Driver/src/stm32f0xx_flash.c ****       /* Enable the Option Bytes Programming operation */
 559:Drivers/STM32F0xx_StdPeriph_Driver/src/stm32f0xx_flash.c ****       FLASH->CR |= FLASH_CR_OPTPG;
 560:Drivers/STM32F0xx_StdPeriph_Driver/src/stm32f0xx_flash.c **** 
 561:Drivers/STM32F0xx_StdPeriph_Driver/src/stm32f0xx_flash.c ****       /* Restore the last read protection Option Byte value */
 562:Drivers/STM32F0xx_StdPeriph_Driver/src/stm32f0xx_flash.c ****       OB->RDP = (uint16_t)rdptmp; 
 563:Drivers/STM32F0xx_StdPeriph_Driver/src/stm32f0xx_flash.c **** 
 564:Drivers/STM32F0xx_StdPeriph_Driver/src/stm32f0xx_flash.c ****       /* Wait for last operation to be completed */
 565:Drivers/STM32F0xx_StdPeriph_Driver/src/stm32f0xx_flash.c ****       status = FLASH_WaitForLastOperation(FLASH_ER_PRG_TIMEOUT);
 566:Drivers/STM32F0xx_StdPeriph_Driver/src/stm32f0xx_flash.c ****  
 567:Drivers/STM32F0xx_StdPeriph_Driver/src/stm32f0xx_flash.c ****       if(status != FLASH_TIMEOUT)
 568:Drivers/STM32F0xx_StdPeriph_Driver/src/stm32f0xx_flash.c ****       {
 569:Drivers/STM32F0xx_StdPeriph_Driver/src/stm32f0xx_flash.c ****         /* if the program operation is completed, disable the OPTPG Bit */
 570:Drivers/STM32F0xx_StdPeriph_Driver/src/stm32f0xx_flash.c ****         FLASH->CR &= ~FLASH_CR_OPTPG;
 571:Drivers/STM32F0xx_StdPeriph_Driver/src/stm32f0xx_flash.c ****       }
 572:Drivers/STM32F0xx_StdPeriph_Driver/src/stm32f0xx_flash.c ****     }
 573:Drivers/STM32F0xx_StdPeriph_Driver/src/stm32f0xx_flash.c ****     else
 574:Drivers/STM32F0xx_StdPeriph_Driver/src/stm32f0xx_flash.c ****     {
 575:Drivers/STM32F0xx_StdPeriph_Driver/src/stm32f0xx_flash.c ****       if (status != FLASH_TIMEOUT)
 576:Drivers/STM32F0xx_StdPeriph_Driver/src/stm32f0xx_flash.c ****       {
ARM GAS  /tmp/ccL3hku5.s 			page 17


 577:Drivers/STM32F0xx_StdPeriph_Driver/src/stm32f0xx_flash.c ****         /* Disable the OPTPG Bit */
 578:Drivers/STM32F0xx_StdPeriph_Driver/src/stm32f0xx_flash.c ****         FLASH->CR &= ~FLASH_CR_OPTPG;
 579:Drivers/STM32F0xx_StdPeriph_Driver/src/stm32f0xx_flash.c ****       }
 580:Drivers/STM32F0xx_StdPeriph_Driver/src/stm32f0xx_flash.c ****     }  
 581:Drivers/STM32F0xx_StdPeriph_Driver/src/stm32f0xx_flash.c ****   }
 582:Drivers/STM32F0xx_StdPeriph_Driver/src/stm32f0xx_flash.c ****   /* Return the erase status */
 583:Drivers/STM32F0xx_StdPeriph_Driver/src/stm32f0xx_flash.c ****   return status;
 584:Drivers/STM32F0xx_StdPeriph_Driver/src/stm32f0xx_flash.c **** }
 585:Drivers/STM32F0xx_StdPeriph_Driver/src/stm32f0xx_flash.c **** 
 586:Drivers/STM32F0xx_StdPeriph_Driver/src/stm32f0xx_flash.c **** /**
 587:Drivers/STM32F0xx_StdPeriph_Driver/src/stm32f0xx_flash.c ****   * @brief  Write protects the desired pages
 588:Drivers/STM32F0xx_StdPeriph_Driver/src/stm32f0xx_flash.c ****   * @note    To correctly run this function, the FLASH_OB_Unlock() function
 589:Drivers/STM32F0xx_StdPeriph_Driver/src/stm32f0xx_flash.c ****   *           must be called before.
 590:Drivers/STM32F0xx_StdPeriph_Driver/src/stm32f0xx_flash.c ****   *          Call the FLASH_OB_Lock() to disable the flash control register access and the option b
 591:Drivers/STM32F0xx_StdPeriph_Driver/src/stm32f0xx_flash.c ****   *          (recommended to protect the FLASH memory against possible unwanted operation)
 592:Drivers/STM32F0xx_StdPeriph_Driver/src/stm32f0xx_flash.c ****   * @param  OB_WRP: specifies the address of the pages to be write protected.
 593:Drivers/STM32F0xx_StdPeriph_Driver/src/stm32f0xx_flash.c ****   *         This parameter can be:
 594:Drivers/STM32F0xx_StdPeriph_Driver/src/stm32f0xx_flash.c ****   *             @arg OB_WRP_Pages0to3..OB_WRP_Pages60to63
 595:Drivers/STM32F0xx_StdPeriph_Driver/src/stm32f0xx_flash.c ****   *             @arg OB_WRP_AllPages
 596:Drivers/STM32F0xx_StdPeriph_Driver/src/stm32f0xx_flash.c ****   * @retval FLASH Status: The returned value can be: 
 597:Drivers/STM32F0xx_StdPeriph_Driver/src/stm32f0xx_flash.c ****   *         FLASH_ERROR_PROGRAM, FLASH_ERROR_WRP, FLASH_COMPLETE or FLASH_TIMEOUT.
 598:Drivers/STM32F0xx_StdPeriph_Driver/src/stm32f0xx_flash.c ****   */
 599:Drivers/STM32F0xx_StdPeriph_Driver/src/stm32f0xx_flash.c **** FLASH_Status FLASH_OB_EnableWRP(uint32_t OB_WRP)
 600:Drivers/STM32F0xx_StdPeriph_Driver/src/stm32f0xx_flash.c **** {
 601:Drivers/STM32F0xx_StdPeriph_Driver/src/stm32f0xx_flash.c ****   uint16_t WRP0_Data = 0xFFFF, WRP1_Data = 0xFFFF;
 602:Drivers/STM32F0xx_StdPeriph_Driver/src/stm32f0xx_flash.c **** 
 603:Drivers/STM32F0xx_StdPeriph_Driver/src/stm32f0xx_flash.c ****   FLASH_Status status = FLASH_COMPLETE;
 604:Drivers/STM32F0xx_StdPeriph_Driver/src/stm32f0xx_flash.c **** 
 605:Drivers/STM32F0xx_StdPeriph_Driver/src/stm32f0xx_flash.c ****   /* Check the parameters */
 606:Drivers/STM32F0xx_StdPeriph_Driver/src/stm32f0xx_flash.c ****   assert_param(IS_OB_WRP(OB_WRP));
 607:Drivers/STM32F0xx_StdPeriph_Driver/src/stm32f0xx_flash.c **** 
 608:Drivers/STM32F0xx_StdPeriph_Driver/src/stm32f0xx_flash.c ****   OB_WRP = (uint32_t)(~OB_WRP);
 609:Drivers/STM32F0xx_StdPeriph_Driver/src/stm32f0xx_flash.c ****   WRP0_Data = (uint16_t)(OB_WRP & OB_WRP0_WRP0);
 610:Drivers/STM32F0xx_StdPeriph_Driver/src/stm32f0xx_flash.c ****   WRP1_Data = (uint16_t)((OB_WRP & OB_WRP0_nWRP0) >> 8);
 611:Drivers/STM32F0xx_StdPeriph_Driver/src/stm32f0xx_flash.c **** 
 612:Drivers/STM32F0xx_StdPeriph_Driver/src/stm32f0xx_flash.c ****   /* Wait for last operation to be completed */
 613:Drivers/STM32F0xx_StdPeriph_Driver/src/stm32f0xx_flash.c ****   status = FLASH_WaitForLastOperation(FLASH_ER_PRG_TIMEOUT);
 614:Drivers/STM32F0xx_StdPeriph_Driver/src/stm32f0xx_flash.c **** 
 615:Drivers/STM32F0xx_StdPeriph_Driver/src/stm32f0xx_flash.c ****   if(status == FLASH_COMPLETE)
 616:Drivers/STM32F0xx_StdPeriph_Driver/src/stm32f0xx_flash.c ****   {
 617:Drivers/STM32F0xx_StdPeriph_Driver/src/stm32f0xx_flash.c ****     FLASH->CR |= FLASH_CR_OPTPG;
 618:Drivers/STM32F0xx_StdPeriph_Driver/src/stm32f0xx_flash.c **** 
 619:Drivers/STM32F0xx_StdPeriph_Driver/src/stm32f0xx_flash.c ****     if(WRP0_Data != 0xFF)
 620:Drivers/STM32F0xx_StdPeriph_Driver/src/stm32f0xx_flash.c ****     {
 621:Drivers/STM32F0xx_StdPeriph_Driver/src/stm32f0xx_flash.c ****       OB->WRP0 = WRP0_Data;
 622:Drivers/STM32F0xx_StdPeriph_Driver/src/stm32f0xx_flash.c ****       
 623:Drivers/STM32F0xx_StdPeriph_Driver/src/stm32f0xx_flash.c ****       /* Wait for last operation to be completed */
 624:Drivers/STM32F0xx_StdPeriph_Driver/src/stm32f0xx_flash.c ****       status = FLASH_WaitForLastOperation(FLASH_ER_PRG_TIMEOUT);
 625:Drivers/STM32F0xx_StdPeriph_Driver/src/stm32f0xx_flash.c ****     }
 626:Drivers/STM32F0xx_StdPeriph_Driver/src/stm32f0xx_flash.c ****     if((status == FLASH_COMPLETE) && (WRP1_Data != 0xFF))
 627:Drivers/STM32F0xx_StdPeriph_Driver/src/stm32f0xx_flash.c ****     {
 628:Drivers/STM32F0xx_StdPeriph_Driver/src/stm32f0xx_flash.c ****       OB->WRP1 = WRP1_Data;
 629:Drivers/STM32F0xx_StdPeriph_Driver/src/stm32f0xx_flash.c ****       
 630:Drivers/STM32F0xx_StdPeriph_Driver/src/stm32f0xx_flash.c ****       /* Wait for last operation to be completed */
 631:Drivers/STM32F0xx_StdPeriph_Driver/src/stm32f0xx_flash.c ****       status = FLASH_WaitForLastOperation(FLASH_ER_PRG_TIMEOUT);
 632:Drivers/STM32F0xx_StdPeriph_Driver/src/stm32f0xx_flash.c ****     }
 633:Drivers/STM32F0xx_StdPeriph_Driver/src/stm32f0xx_flash.c ****           
ARM GAS  /tmp/ccL3hku5.s 			page 18


 634:Drivers/STM32F0xx_StdPeriph_Driver/src/stm32f0xx_flash.c ****     if(status != FLASH_TIMEOUT)
 635:Drivers/STM32F0xx_StdPeriph_Driver/src/stm32f0xx_flash.c ****     {
 636:Drivers/STM32F0xx_StdPeriph_Driver/src/stm32f0xx_flash.c ****       /* if the program operation is completed, disable the OPTPG Bit */
 637:Drivers/STM32F0xx_StdPeriph_Driver/src/stm32f0xx_flash.c ****       FLASH->CR &= ~FLASH_CR_OPTPG;
 638:Drivers/STM32F0xx_StdPeriph_Driver/src/stm32f0xx_flash.c ****     }
 639:Drivers/STM32F0xx_StdPeriph_Driver/src/stm32f0xx_flash.c ****   } 
 640:Drivers/STM32F0xx_StdPeriph_Driver/src/stm32f0xx_flash.c ****   /* Return the write protection operation Status */
 641:Drivers/STM32F0xx_StdPeriph_Driver/src/stm32f0xx_flash.c ****   return status;
 642:Drivers/STM32F0xx_StdPeriph_Driver/src/stm32f0xx_flash.c **** }
 643:Drivers/STM32F0xx_StdPeriph_Driver/src/stm32f0xx_flash.c **** 
 644:Drivers/STM32F0xx_StdPeriph_Driver/src/stm32f0xx_flash.c **** /**
 645:Drivers/STM32F0xx_StdPeriph_Driver/src/stm32f0xx_flash.c ****   * @brief  Enables or disables the read out protection.
 646:Drivers/STM32F0xx_StdPeriph_Driver/src/stm32f0xx_flash.c ****   * @note    To correctly run this function, the FLASH_OB_Unlock() function
 647:Drivers/STM32F0xx_StdPeriph_Driver/src/stm32f0xx_flash.c ****   *           must be called before.
 648:Drivers/STM32F0xx_StdPeriph_Driver/src/stm32f0xx_flash.c ****   *          Call the FLASH_OB_Lock() to disable the flash control register access and the option b
 649:Drivers/STM32F0xx_StdPeriph_Driver/src/stm32f0xx_flash.c ****   *          (recommended to protect the FLASH memory against possible unwanted operation)
 650:Drivers/STM32F0xx_StdPeriph_Driver/src/stm32f0xx_flash.c ****   * @param  FLASH_ReadProtection_Level: specifies the read protection level. 
 651:Drivers/STM32F0xx_StdPeriph_Driver/src/stm32f0xx_flash.c ****   *   This parameter can be:
 652:Drivers/STM32F0xx_StdPeriph_Driver/src/stm32f0xx_flash.c ****   *     @arg OB_RDP_Level_0: No protection
 653:Drivers/STM32F0xx_StdPeriph_Driver/src/stm32f0xx_flash.c ****   *     @arg OB_RDP_Level_1: Read protection of the memory
 654:Drivers/STM32F0xx_StdPeriph_Driver/src/stm32f0xx_flash.c ****   *     @arg OB_RDP_Level_2: Chip protection
 655:Drivers/STM32F0xx_StdPeriph_Driver/src/stm32f0xx_flash.c ****   * @retval FLASH Status: The returned value can be: 
 656:Drivers/STM32F0xx_StdPeriph_Driver/src/stm32f0xx_flash.c ****   *         FLASH_ERROR_PROGRAM, FLASH_ERROR_WRP, FLASH_COMPLETE or FLASH_TIMEOUT.
 657:Drivers/STM32F0xx_StdPeriph_Driver/src/stm32f0xx_flash.c ****   */
 658:Drivers/STM32F0xx_StdPeriph_Driver/src/stm32f0xx_flash.c **** FLASH_Status FLASH_OB_RDPConfig(uint8_t OB_RDP)
 659:Drivers/STM32F0xx_StdPeriph_Driver/src/stm32f0xx_flash.c **** {
 660:Drivers/STM32F0xx_StdPeriph_Driver/src/stm32f0xx_flash.c ****   FLASH_Status status = FLASH_COMPLETE;
 661:Drivers/STM32F0xx_StdPeriph_Driver/src/stm32f0xx_flash.c ****   
 662:Drivers/STM32F0xx_StdPeriph_Driver/src/stm32f0xx_flash.c ****   /* Check the parameters */
 663:Drivers/STM32F0xx_StdPeriph_Driver/src/stm32f0xx_flash.c ****   assert_param(IS_OB_RDP(OB_RDP));
 664:Drivers/STM32F0xx_StdPeriph_Driver/src/stm32f0xx_flash.c ****   status = FLASH_WaitForLastOperation(FLASH_ER_PRG_TIMEOUT);
 665:Drivers/STM32F0xx_StdPeriph_Driver/src/stm32f0xx_flash.c ****   
 666:Drivers/STM32F0xx_StdPeriph_Driver/src/stm32f0xx_flash.c ****   if(status == FLASH_COMPLETE)
 667:Drivers/STM32F0xx_StdPeriph_Driver/src/stm32f0xx_flash.c ****   {
 668:Drivers/STM32F0xx_StdPeriph_Driver/src/stm32f0xx_flash.c ****     FLASH->CR |= FLASH_CR_OPTER;
 669:Drivers/STM32F0xx_StdPeriph_Driver/src/stm32f0xx_flash.c ****     FLASH->CR |= FLASH_CR_STRT;
 670:Drivers/STM32F0xx_StdPeriph_Driver/src/stm32f0xx_flash.c ****     
 671:Drivers/STM32F0xx_StdPeriph_Driver/src/stm32f0xx_flash.c ****     /* Wait for last operation to be completed */
 672:Drivers/STM32F0xx_StdPeriph_Driver/src/stm32f0xx_flash.c ****     status = FLASH_WaitForLastOperation(FLASH_ER_PRG_TIMEOUT);
 673:Drivers/STM32F0xx_StdPeriph_Driver/src/stm32f0xx_flash.c ****     
 674:Drivers/STM32F0xx_StdPeriph_Driver/src/stm32f0xx_flash.c ****     if(status == FLASH_COMPLETE)
 675:Drivers/STM32F0xx_StdPeriph_Driver/src/stm32f0xx_flash.c ****     {
 676:Drivers/STM32F0xx_StdPeriph_Driver/src/stm32f0xx_flash.c ****       /* If the erase operation is completed, disable the OPTER Bit */
 677:Drivers/STM32F0xx_StdPeriph_Driver/src/stm32f0xx_flash.c ****       FLASH->CR &= ~FLASH_CR_OPTER;
 678:Drivers/STM32F0xx_StdPeriph_Driver/src/stm32f0xx_flash.c ****       
 679:Drivers/STM32F0xx_StdPeriph_Driver/src/stm32f0xx_flash.c ****       /* Enable the Option Bytes Programming operation */
 680:Drivers/STM32F0xx_StdPeriph_Driver/src/stm32f0xx_flash.c ****       FLASH->CR |= FLASH_CR_OPTPG;
 681:Drivers/STM32F0xx_StdPeriph_Driver/src/stm32f0xx_flash.c ****        
 682:Drivers/STM32F0xx_StdPeriph_Driver/src/stm32f0xx_flash.c ****       OB->RDP = OB_RDP;
 683:Drivers/STM32F0xx_StdPeriph_Driver/src/stm32f0xx_flash.c **** 
 684:Drivers/STM32F0xx_StdPeriph_Driver/src/stm32f0xx_flash.c ****       /* Wait for last operation to be completed */
 685:Drivers/STM32F0xx_StdPeriph_Driver/src/stm32f0xx_flash.c ****       status = FLASH_WaitForLastOperation(FLASH_ER_PRG_TIMEOUT); 
 686:Drivers/STM32F0xx_StdPeriph_Driver/src/stm32f0xx_flash.c ****     
 687:Drivers/STM32F0xx_StdPeriph_Driver/src/stm32f0xx_flash.c ****       if(status != FLASH_TIMEOUT)
 688:Drivers/STM32F0xx_StdPeriph_Driver/src/stm32f0xx_flash.c ****       {
 689:Drivers/STM32F0xx_StdPeriph_Driver/src/stm32f0xx_flash.c ****         /* if the program operation is completed, disable the OPTPG Bit */
 690:Drivers/STM32F0xx_StdPeriph_Driver/src/stm32f0xx_flash.c ****         FLASH->CR &= ~FLASH_CR_OPTPG;
ARM GAS  /tmp/ccL3hku5.s 			page 19


 691:Drivers/STM32F0xx_StdPeriph_Driver/src/stm32f0xx_flash.c ****       }
 692:Drivers/STM32F0xx_StdPeriph_Driver/src/stm32f0xx_flash.c ****     }
 693:Drivers/STM32F0xx_StdPeriph_Driver/src/stm32f0xx_flash.c ****     else 
 694:Drivers/STM32F0xx_StdPeriph_Driver/src/stm32f0xx_flash.c ****     {
 695:Drivers/STM32F0xx_StdPeriph_Driver/src/stm32f0xx_flash.c ****       if(status != FLASH_TIMEOUT)
 696:Drivers/STM32F0xx_StdPeriph_Driver/src/stm32f0xx_flash.c ****       {
 697:Drivers/STM32F0xx_StdPeriph_Driver/src/stm32f0xx_flash.c ****         /* Disable the OPTER Bit */
 698:Drivers/STM32F0xx_StdPeriph_Driver/src/stm32f0xx_flash.c ****         FLASH->CR &= ~FLASH_CR_OPTER;
 699:Drivers/STM32F0xx_StdPeriph_Driver/src/stm32f0xx_flash.c ****       }
 700:Drivers/STM32F0xx_StdPeriph_Driver/src/stm32f0xx_flash.c ****     }
 701:Drivers/STM32F0xx_StdPeriph_Driver/src/stm32f0xx_flash.c ****   }
 702:Drivers/STM32F0xx_StdPeriph_Driver/src/stm32f0xx_flash.c ****   /* Return the protection operation Status */
 703:Drivers/STM32F0xx_StdPeriph_Driver/src/stm32f0xx_flash.c ****   return status;
 704:Drivers/STM32F0xx_StdPeriph_Driver/src/stm32f0xx_flash.c **** }
 705:Drivers/STM32F0xx_StdPeriph_Driver/src/stm32f0xx_flash.c **** 
 706:Drivers/STM32F0xx_StdPeriph_Driver/src/stm32f0xx_flash.c **** /**
 707:Drivers/STM32F0xx_StdPeriph_Driver/src/stm32f0xx_flash.c ****   * @brief  Programs the FLASH User Option Byte: IWDG_SW / RST_STOP / RST_STDBY.
 708:Drivers/STM32F0xx_StdPeriph_Driver/src/stm32f0xx_flash.c ****   * @note    To correctly run this function, the FLASH_OB_Unlock() function
 709:Drivers/STM32F0xx_StdPeriph_Driver/src/stm32f0xx_flash.c ****   *           must be called before.
 710:Drivers/STM32F0xx_StdPeriph_Driver/src/stm32f0xx_flash.c ****   *          Call the FLASH_OB_Lock() to disable the flash control register access and the option b
 711:Drivers/STM32F0xx_StdPeriph_Driver/src/stm32f0xx_flash.c ****   *          (recommended to protect the FLASH memory against possible unwanted operation)
 712:Drivers/STM32F0xx_StdPeriph_Driver/src/stm32f0xx_flash.c ****   * @param  OB_IWDG: Selects the WDG mode
 713:Drivers/STM32F0xx_StdPeriph_Driver/src/stm32f0xx_flash.c ****   *         This parameter can be one of the following values:
 714:Drivers/STM32F0xx_StdPeriph_Driver/src/stm32f0xx_flash.c ****   *             @arg OB_IWDG_SW: Software WDG selected
 715:Drivers/STM32F0xx_StdPeriph_Driver/src/stm32f0xx_flash.c ****   *             @arg OB_IWDG_HW: Hardware WDG selected
 716:Drivers/STM32F0xx_StdPeriph_Driver/src/stm32f0xx_flash.c ****   * @param  OB_STOP: Reset event when entering STOP mode.
 717:Drivers/STM32F0xx_StdPeriph_Driver/src/stm32f0xx_flash.c ****   *         This parameter can be one of the following values:
 718:Drivers/STM32F0xx_StdPeriph_Driver/src/stm32f0xx_flash.c ****   *             @arg OB_STOP_NoRST: No reset generated when entering in STOP
 719:Drivers/STM32F0xx_StdPeriph_Driver/src/stm32f0xx_flash.c ****   *             @arg OB_STOP_RST: Reset generated when entering in STOP
 720:Drivers/STM32F0xx_StdPeriph_Driver/src/stm32f0xx_flash.c ****   * @param  OB_STDBY: Reset event when entering Standby mode.
 721:Drivers/STM32F0xx_StdPeriph_Driver/src/stm32f0xx_flash.c ****   *         This parameter can be one of the following values:
 722:Drivers/STM32F0xx_StdPeriph_Driver/src/stm32f0xx_flash.c ****   *             @arg OB_STDBY_NoRST: No reset generated when entering in STANDBY
 723:Drivers/STM32F0xx_StdPeriph_Driver/src/stm32f0xx_flash.c ****   *             @arg OB_STDBY_RST: Reset generated when entering in STANDBY
 724:Drivers/STM32F0xx_StdPeriph_Driver/src/stm32f0xx_flash.c ****   * @retval FLASH Status: The returned value can be: 
 725:Drivers/STM32F0xx_StdPeriph_Driver/src/stm32f0xx_flash.c ****   *         FLASH_ERROR_PROGRAM, FLASH_ERROR_WRP, FLASH_COMPLETE or FLASH_TIMEOUT.
 726:Drivers/STM32F0xx_StdPeriph_Driver/src/stm32f0xx_flash.c ****   */
 727:Drivers/STM32F0xx_StdPeriph_Driver/src/stm32f0xx_flash.c **** FLASH_Status FLASH_OB_UserConfig(uint8_t OB_IWDG, uint8_t OB_STOP, uint8_t OB_STDBY)
 728:Drivers/STM32F0xx_StdPeriph_Driver/src/stm32f0xx_flash.c **** {
 729:Drivers/STM32F0xx_StdPeriph_Driver/src/stm32f0xx_flash.c ****   FLASH_Status status = FLASH_COMPLETE; 
 730:Drivers/STM32F0xx_StdPeriph_Driver/src/stm32f0xx_flash.c **** 
 731:Drivers/STM32F0xx_StdPeriph_Driver/src/stm32f0xx_flash.c ****   /* Check the parameters */
 732:Drivers/STM32F0xx_StdPeriph_Driver/src/stm32f0xx_flash.c ****   assert_param(IS_OB_IWDG_SOURCE(OB_IWDG));
 733:Drivers/STM32F0xx_StdPeriph_Driver/src/stm32f0xx_flash.c ****   assert_param(IS_OB_STOP_SOURCE(OB_STOP));
 734:Drivers/STM32F0xx_StdPeriph_Driver/src/stm32f0xx_flash.c ****   assert_param(IS_OB_STDBY_SOURCE(OB_STDBY));
 735:Drivers/STM32F0xx_StdPeriph_Driver/src/stm32f0xx_flash.c **** 
 736:Drivers/STM32F0xx_StdPeriph_Driver/src/stm32f0xx_flash.c ****   /* Wait for last operation to be completed */
 737:Drivers/STM32F0xx_StdPeriph_Driver/src/stm32f0xx_flash.c ****   status = FLASH_WaitForLastOperation(FLASH_ER_PRG_TIMEOUT);
 738:Drivers/STM32F0xx_StdPeriph_Driver/src/stm32f0xx_flash.c ****   
 739:Drivers/STM32F0xx_StdPeriph_Driver/src/stm32f0xx_flash.c ****   if(status == FLASH_COMPLETE)
 740:Drivers/STM32F0xx_StdPeriph_Driver/src/stm32f0xx_flash.c ****   {
 741:Drivers/STM32F0xx_StdPeriph_Driver/src/stm32f0xx_flash.c ****     /* Enable the Option Bytes Programming operation */
 742:Drivers/STM32F0xx_StdPeriph_Driver/src/stm32f0xx_flash.c ****     FLASH->CR |= FLASH_CR_OPTPG; 
 743:Drivers/STM32F0xx_StdPeriph_Driver/src/stm32f0xx_flash.c **** 
 744:Drivers/STM32F0xx_StdPeriph_Driver/src/stm32f0xx_flash.c ****     OB->USER = (uint16_t)((uint16_t)(OB_IWDG | OB_STOP) | (uint16_t)(OB_STDBY | 0xF8));
 745:Drivers/STM32F0xx_StdPeriph_Driver/src/stm32f0xx_flash.c ****   
 746:Drivers/STM32F0xx_StdPeriph_Driver/src/stm32f0xx_flash.c ****     /* Wait for last operation to be completed */
 747:Drivers/STM32F0xx_StdPeriph_Driver/src/stm32f0xx_flash.c ****     status = FLASH_WaitForLastOperation(FLASH_ER_PRG_TIMEOUT);
ARM GAS  /tmp/ccL3hku5.s 			page 20


 748:Drivers/STM32F0xx_StdPeriph_Driver/src/stm32f0xx_flash.c **** 
 749:Drivers/STM32F0xx_StdPeriph_Driver/src/stm32f0xx_flash.c ****     if(status != FLASH_TIMEOUT)
 750:Drivers/STM32F0xx_StdPeriph_Driver/src/stm32f0xx_flash.c ****     {
 751:Drivers/STM32F0xx_StdPeriph_Driver/src/stm32f0xx_flash.c ****       /* If the program operation is completed, disable the OPTPG Bit */
 752:Drivers/STM32F0xx_StdPeriph_Driver/src/stm32f0xx_flash.c ****       FLASH->CR &= ~FLASH_CR_OPTPG;
 753:Drivers/STM32F0xx_StdPeriph_Driver/src/stm32f0xx_flash.c ****     }
 754:Drivers/STM32F0xx_StdPeriph_Driver/src/stm32f0xx_flash.c ****   }    
 755:Drivers/STM32F0xx_StdPeriph_Driver/src/stm32f0xx_flash.c ****   /* Return the Option Byte program Status */
 756:Drivers/STM32F0xx_StdPeriph_Driver/src/stm32f0xx_flash.c ****   return status;
 757:Drivers/STM32F0xx_StdPeriph_Driver/src/stm32f0xx_flash.c **** }
 758:Drivers/STM32F0xx_StdPeriph_Driver/src/stm32f0xx_flash.c **** 
 759:Drivers/STM32F0xx_StdPeriph_Driver/src/stm32f0xx_flash.c **** /**
 760:Drivers/STM32F0xx_StdPeriph_Driver/src/stm32f0xx_flash.c ****   * @brief  Sets or resets the BOOT1.
 761:Drivers/STM32F0xx_StdPeriph_Driver/src/stm32f0xx_flash.c ****   * @param  OB_BOOT1: Set or Reset the BOOT1.
 762:Drivers/STM32F0xx_StdPeriph_Driver/src/stm32f0xx_flash.c ****   *         This parameter can be one of the following values:
 763:Drivers/STM32F0xx_StdPeriph_Driver/src/stm32f0xx_flash.c ****   *             @arg OB_BOOT1_RESET: BOOT1 Reset
 764:Drivers/STM32F0xx_StdPeriph_Driver/src/stm32f0xx_flash.c ****   *             @arg OB_BOOT1_SET: BOOT1 Set
 765:Drivers/STM32F0xx_StdPeriph_Driver/src/stm32f0xx_flash.c ****   * @retval None
 766:Drivers/STM32F0xx_StdPeriph_Driver/src/stm32f0xx_flash.c ****   */
 767:Drivers/STM32F0xx_StdPeriph_Driver/src/stm32f0xx_flash.c **** FLASH_Status FLASH_OB_BOOTConfig(uint8_t OB_BOOT1)
 768:Drivers/STM32F0xx_StdPeriph_Driver/src/stm32f0xx_flash.c **** {
 769:Drivers/STM32F0xx_StdPeriph_Driver/src/stm32f0xx_flash.c ****   FLASH_Status status = FLASH_COMPLETE; 
 770:Drivers/STM32F0xx_StdPeriph_Driver/src/stm32f0xx_flash.c **** 
 771:Drivers/STM32F0xx_StdPeriph_Driver/src/stm32f0xx_flash.c ****   /* Check the parameters */
 772:Drivers/STM32F0xx_StdPeriph_Driver/src/stm32f0xx_flash.c ****   assert_param(IS_OB_BOOT1(OB_BOOT1));
 773:Drivers/STM32F0xx_StdPeriph_Driver/src/stm32f0xx_flash.c **** 
 774:Drivers/STM32F0xx_StdPeriph_Driver/src/stm32f0xx_flash.c ****   /* Wait for last operation to be completed */
 775:Drivers/STM32F0xx_StdPeriph_Driver/src/stm32f0xx_flash.c ****   status = FLASH_WaitForLastOperation(FLASH_ER_PRG_TIMEOUT);
 776:Drivers/STM32F0xx_StdPeriph_Driver/src/stm32f0xx_flash.c ****   
 777:Drivers/STM32F0xx_StdPeriph_Driver/src/stm32f0xx_flash.c ****   if(status == FLASH_COMPLETE)
 778:Drivers/STM32F0xx_StdPeriph_Driver/src/stm32f0xx_flash.c ****   {  
 779:Drivers/STM32F0xx_StdPeriph_Driver/src/stm32f0xx_flash.c ****     /* Enable the Option Bytes Programming operation */
 780:Drivers/STM32F0xx_StdPeriph_Driver/src/stm32f0xx_flash.c ****     FLASH->CR |= FLASH_CR_OPTPG;
 781:Drivers/STM32F0xx_StdPeriph_Driver/src/stm32f0xx_flash.c **** 
 782:Drivers/STM32F0xx_StdPeriph_Driver/src/stm32f0xx_flash.c ****     OB->USER = OB_BOOT1 | 0xEF;
 783:Drivers/STM32F0xx_StdPeriph_Driver/src/stm32f0xx_flash.c ****   
 784:Drivers/STM32F0xx_StdPeriph_Driver/src/stm32f0xx_flash.c ****     /* Wait for last operation to be completed */
 785:Drivers/STM32F0xx_StdPeriph_Driver/src/stm32f0xx_flash.c ****     status = FLASH_WaitForLastOperation(FLASH_ER_PRG_TIMEOUT);
 786:Drivers/STM32F0xx_StdPeriph_Driver/src/stm32f0xx_flash.c **** 
 787:Drivers/STM32F0xx_StdPeriph_Driver/src/stm32f0xx_flash.c ****     if(status != FLASH_TIMEOUT)
 788:Drivers/STM32F0xx_StdPeriph_Driver/src/stm32f0xx_flash.c ****     {
 789:Drivers/STM32F0xx_StdPeriph_Driver/src/stm32f0xx_flash.c ****       /* If the program operation is completed, disable the OPTPG Bit */
 790:Drivers/STM32F0xx_StdPeriph_Driver/src/stm32f0xx_flash.c ****       FLASH->CR &= ~FLASH_CR_OPTPG;
 791:Drivers/STM32F0xx_StdPeriph_Driver/src/stm32f0xx_flash.c ****     }
 792:Drivers/STM32F0xx_StdPeriph_Driver/src/stm32f0xx_flash.c ****   }
 793:Drivers/STM32F0xx_StdPeriph_Driver/src/stm32f0xx_flash.c ****   /* Return the Option Byte program Status */
 794:Drivers/STM32F0xx_StdPeriph_Driver/src/stm32f0xx_flash.c ****   return status;
 795:Drivers/STM32F0xx_StdPeriph_Driver/src/stm32f0xx_flash.c **** }
 796:Drivers/STM32F0xx_StdPeriph_Driver/src/stm32f0xx_flash.c **** 
 797:Drivers/STM32F0xx_StdPeriph_Driver/src/stm32f0xx_flash.c **** /**
 798:Drivers/STM32F0xx_StdPeriph_Driver/src/stm32f0xx_flash.c ****   * @brief  Sets or resets the analogue monitoring on VDDA Power source.
 799:Drivers/STM32F0xx_StdPeriph_Driver/src/stm32f0xx_flash.c ****   * @param  OB_VDDA_ANALOG: Selects the analog monitoring on VDDA Power source.
 800:Drivers/STM32F0xx_StdPeriph_Driver/src/stm32f0xx_flash.c ****   *         This parameter can be one of the following values:
 801:Drivers/STM32F0xx_StdPeriph_Driver/src/stm32f0xx_flash.c ****   *             @arg OB_VDDA_ANALOG_ON: Analog monitoring on VDDA Power source ON
 802:Drivers/STM32F0xx_StdPeriph_Driver/src/stm32f0xx_flash.c ****   *             @arg OB_VDDA_ANALOG_OFF: Analog monitoring on VDDA Power source OFF
 803:Drivers/STM32F0xx_StdPeriph_Driver/src/stm32f0xx_flash.c ****   * @retval None
 804:Drivers/STM32F0xx_StdPeriph_Driver/src/stm32f0xx_flash.c ****   */
ARM GAS  /tmp/ccL3hku5.s 			page 21


 805:Drivers/STM32F0xx_StdPeriph_Driver/src/stm32f0xx_flash.c **** FLASH_Status FLASH_OB_VDDAConfig(uint8_t OB_VDDA_ANALOG)
 806:Drivers/STM32F0xx_StdPeriph_Driver/src/stm32f0xx_flash.c **** {
 807:Drivers/STM32F0xx_StdPeriph_Driver/src/stm32f0xx_flash.c ****   FLASH_Status status = FLASH_COMPLETE; 
 808:Drivers/STM32F0xx_StdPeriph_Driver/src/stm32f0xx_flash.c **** 
 809:Drivers/STM32F0xx_StdPeriph_Driver/src/stm32f0xx_flash.c ****   /* Check the parameters */
 810:Drivers/STM32F0xx_StdPeriph_Driver/src/stm32f0xx_flash.c ****   assert_param(IS_OB_VDDA_ANALOG(OB_VDDA_ANALOG));
 811:Drivers/STM32F0xx_StdPeriph_Driver/src/stm32f0xx_flash.c **** 
 812:Drivers/STM32F0xx_StdPeriph_Driver/src/stm32f0xx_flash.c ****   /* Wait for last operation to be completed */
 813:Drivers/STM32F0xx_StdPeriph_Driver/src/stm32f0xx_flash.c ****   status = FLASH_WaitForLastOperation(FLASH_ER_PRG_TIMEOUT);
 814:Drivers/STM32F0xx_StdPeriph_Driver/src/stm32f0xx_flash.c ****   
 815:Drivers/STM32F0xx_StdPeriph_Driver/src/stm32f0xx_flash.c ****   if(status == FLASH_COMPLETE)
 816:Drivers/STM32F0xx_StdPeriph_Driver/src/stm32f0xx_flash.c ****   {  
 817:Drivers/STM32F0xx_StdPeriph_Driver/src/stm32f0xx_flash.c ****     /* Enable the Option Bytes Programming operation */
 818:Drivers/STM32F0xx_StdPeriph_Driver/src/stm32f0xx_flash.c ****     FLASH->CR |= FLASH_CR_OPTPG; 
 819:Drivers/STM32F0xx_StdPeriph_Driver/src/stm32f0xx_flash.c **** 
 820:Drivers/STM32F0xx_StdPeriph_Driver/src/stm32f0xx_flash.c ****     OB->USER = OB_VDDA_ANALOG | 0xDF;
 821:Drivers/STM32F0xx_StdPeriph_Driver/src/stm32f0xx_flash.c ****   
 822:Drivers/STM32F0xx_StdPeriph_Driver/src/stm32f0xx_flash.c ****     /* Wait for last operation to be completed */
 823:Drivers/STM32F0xx_StdPeriph_Driver/src/stm32f0xx_flash.c ****     status = FLASH_WaitForLastOperation(FLASH_ER_PRG_TIMEOUT);
 824:Drivers/STM32F0xx_StdPeriph_Driver/src/stm32f0xx_flash.c **** 
 825:Drivers/STM32F0xx_StdPeriph_Driver/src/stm32f0xx_flash.c ****     if(status != FLASH_TIMEOUT)
 826:Drivers/STM32F0xx_StdPeriph_Driver/src/stm32f0xx_flash.c ****     {
 827:Drivers/STM32F0xx_StdPeriph_Driver/src/stm32f0xx_flash.c ****       /* if the program operation is completed, disable the OPTPG Bit */
 828:Drivers/STM32F0xx_StdPeriph_Driver/src/stm32f0xx_flash.c ****       FLASH->CR &= ~FLASH_CR_OPTPG;
 829:Drivers/STM32F0xx_StdPeriph_Driver/src/stm32f0xx_flash.c ****     }
 830:Drivers/STM32F0xx_StdPeriph_Driver/src/stm32f0xx_flash.c ****   }
 831:Drivers/STM32F0xx_StdPeriph_Driver/src/stm32f0xx_flash.c ****   /* Return the Option Byte program Status */
 832:Drivers/STM32F0xx_StdPeriph_Driver/src/stm32f0xx_flash.c ****   return status;
 833:Drivers/STM32F0xx_StdPeriph_Driver/src/stm32f0xx_flash.c **** }
 834:Drivers/STM32F0xx_StdPeriph_Driver/src/stm32f0xx_flash.c **** 
 835:Drivers/STM32F0xx_StdPeriph_Driver/src/stm32f0xx_flash.c **** /**
 836:Drivers/STM32F0xx_StdPeriph_Driver/src/stm32f0xx_flash.c ****   * @brief  Sets or resets the SRAM parity.
 837:Drivers/STM32F0xx_StdPeriph_Driver/src/stm32f0xx_flash.c ****   * @param  OB_SRAM_Parity: Set or Reset the SRAM parity enable bit.
 838:Drivers/STM32F0xx_StdPeriph_Driver/src/stm32f0xx_flash.c ****   *         This parameter can be one of the following values:
 839:Drivers/STM32F0xx_StdPeriph_Driver/src/stm32f0xx_flash.c ****   *             @arg OB_SRAM_PARITY_SET: Set SRAM parity.
 840:Drivers/STM32F0xx_StdPeriph_Driver/src/stm32f0xx_flash.c ****   *             @arg OB_SRAM_PARITY_RESET: Reset SRAM parity.
 841:Drivers/STM32F0xx_StdPeriph_Driver/src/stm32f0xx_flash.c ****   * @retval None
 842:Drivers/STM32F0xx_StdPeriph_Driver/src/stm32f0xx_flash.c ****   */
 843:Drivers/STM32F0xx_StdPeriph_Driver/src/stm32f0xx_flash.c **** FLASH_Status FLASH_OB_SRAMParityConfig(uint8_t OB_SRAM_Parity)
 844:Drivers/STM32F0xx_StdPeriph_Driver/src/stm32f0xx_flash.c **** {
 845:Drivers/STM32F0xx_StdPeriph_Driver/src/stm32f0xx_flash.c ****   FLASH_Status status = FLASH_COMPLETE; 
 846:Drivers/STM32F0xx_StdPeriph_Driver/src/stm32f0xx_flash.c **** 
 847:Drivers/STM32F0xx_StdPeriph_Driver/src/stm32f0xx_flash.c ****   /* Check the parameters */
 848:Drivers/STM32F0xx_StdPeriph_Driver/src/stm32f0xx_flash.c ****   assert_param(IS_OB_SRAM_PARITY(OB_SRAM_Parity));
 849:Drivers/STM32F0xx_StdPeriph_Driver/src/stm32f0xx_flash.c **** 
 850:Drivers/STM32F0xx_StdPeriph_Driver/src/stm32f0xx_flash.c ****   /* Wait for last operation to be completed */
 851:Drivers/STM32F0xx_StdPeriph_Driver/src/stm32f0xx_flash.c ****   status = FLASH_WaitForLastOperation(FLASH_ER_PRG_TIMEOUT);
 852:Drivers/STM32F0xx_StdPeriph_Driver/src/stm32f0xx_flash.c ****   
 853:Drivers/STM32F0xx_StdPeriph_Driver/src/stm32f0xx_flash.c ****   if(status == FLASH_COMPLETE)
 854:Drivers/STM32F0xx_StdPeriph_Driver/src/stm32f0xx_flash.c ****   {  
 855:Drivers/STM32F0xx_StdPeriph_Driver/src/stm32f0xx_flash.c ****     /* Enable the Option Bytes Programming operation */
 856:Drivers/STM32F0xx_StdPeriph_Driver/src/stm32f0xx_flash.c ****     FLASH->CR |= FLASH_CR_OPTPG; 
 857:Drivers/STM32F0xx_StdPeriph_Driver/src/stm32f0xx_flash.c **** 
 858:Drivers/STM32F0xx_StdPeriph_Driver/src/stm32f0xx_flash.c ****     OB->USER = OB_SRAM_Parity | 0xBF;
 859:Drivers/STM32F0xx_StdPeriph_Driver/src/stm32f0xx_flash.c ****   
 860:Drivers/STM32F0xx_StdPeriph_Driver/src/stm32f0xx_flash.c ****     /* Wait for last operation to be completed */
 861:Drivers/STM32F0xx_StdPeriph_Driver/src/stm32f0xx_flash.c ****     status = FLASH_WaitForLastOperation(FLASH_ER_PRG_TIMEOUT);
ARM GAS  /tmp/ccL3hku5.s 			page 22


 862:Drivers/STM32F0xx_StdPeriph_Driver/src/stm32f0xx_flash.c **** 
 863:Drivers/STM32F0xx_StdPeriph_Driver/src/stm32f0xx_flash.c ****     if(status != FLASH_TIMEOUT)
 864:Drivers/STM32F0xx_StdPeriph_Driver/src/stm32f0xx_flash.c ****     {
 865:Drivers/STM32F0xx_StdPeriph_Driver/src/stm32f0xx_flash.c ****       /* if the program operation is completed, disable the OPTPG Bit */
 866:Drivers/STM32F0xx_StdPeriph_Driver/src/stm32f0xx_flash.c ****       FLASH->CR &= ~FLASH_CR_OPTPG;
 867:Drivers/STM32F0xx_StdPeriph_Driver/src/stm32f0xx_flash.c ****     }
 868:Drivers/STM32F0xx_StdPeriph_Driver/src/stm32f0xx_flash.c ****   }
 869:Drivers/STM32F0xx_StdPeriph_Driver/src/stm32f0xx_flash.c ****   /* Return the Option Byte program Status */
 870:Drivers/STM32F0xx_StdPeriph_Driver/src/stm32f0xx_flash.c ****   return status;
 871:Drivers/STM32F0xx_StdPeriph_Driver/src/stm32f0xx_flash.c **** }
 872:Drivers/STM32F0xx_StdPeriph_Driver/src/stm32f0xx_flash.c **** 
 873:Drivers/STM32F0xx_StdPeriph_Driver/src/stm32f0xx_flash.c **** /**
 874:Drivers/STM32F0xx_StdPeriph_Driver/src/stm32f0xx_flash.c ****   * @brief  Programs the FLASH User Option Byte: IWDG_SW, RST_STOP, RST_STDBY,
 875:Drivers/STM32F0xx_StdPeriph_Driver/src/stm32f0xx_flash.c ****   *         BOOT1 and VDDA ANALOG monitoring.
 876:Drivers/STM32F0xx_StdPeriph_Driver/src/stm32f0xx_flash.c ****   * @note    To correctly run this function, the FLASH_OB_Unlock() function
 877:Drivers/STM32F0xx_StdPeriph_Driver/src/stm32f0xx_flash.c ****   *           must be called before.
 878:Drivers/STM32F0xx_StdPeriph_Driver/src/stm32f0xx_flash.c ****   *          Call the FLASH_OB_Lock() to disable the flash control register access and the option b
 879:Drivers/STM32F0xx_StdPeriph_Driver/src/stm32f0xx_flash.c ****   *          (recommended to protect the FLASH memory against possible unwanted operation)
 880:Drivers/STM32F0xx_StdPeriph_Driver/src/stm32f0xx_flash.c ****   * @param  OB_USER: Selects all user option bytes
 881:Drivers/STM32F0xx_StdPeriph_Driver/src/stm32f0xx_flash.c ****   *         This parameter is a combination of the following values:
 882:Drivers/STM32F0xx_StdPeriph_Driver/src/stm32f0xx_flash.c ****   *             @arg OB_IWDG_SW / OB_IWDG_HW: Software / Hardware WDG selected
 883:Drivers/STM32F0xx_StdPeriph_Driver/src/stm32f0xx_flash.c ****   *             @arg OB_STOP_NoRST / OB_STOP_RST: No reset / Reset generated when entering in STOP
 884:Drivers/STM32F0xx_StdPeriph_Driver/src/stm32f0xx_flash.c ****   *             @arg OB_STDBY_NoRST / OB_STDBY_RST: No reset / Reset generated when entering in STA
 885:Drivers/STM32F0xx_StdPeriph_Driver/src/stm32f0xx_flash.c ****   *             @arg OB_BOOT1_RESET / OB_BOOT1_SET: BOOT1 Reset / Set
 886:Drivers/STM32F0xx_StdPeriph_Driver/src/stm32f0xx_flash.c ****   *             @arg OB_VDDA_ANALOG_ON / OB_VDDA_ANALOG_OFF: Analog monitoring on VDDA Power source
 887:Drivers/STM32F0xx_StdPeriph_Driver/src/stm32f0xx_flash.c ****   *             @arg OB_SRAM_PARITY_SET / OB_SRAM_PARITY_RESET: SRAM Parity SET / RESET   
 888:Drivers/STM32F0xx_StdPeriph_Driver/src/stm32f0xx_flash.c ****   * @retval FLASH Status: The returned value can be: 
 889:Drivers/STM32F0xx_StdPeriph_Driver/src/stm32f0xx_flash.c ****   *         FLASH_ERROR_PROGRAM, FLASH_ERROR_WRP, FLASH_COMPLETE or FLASH_TIMEOUT.
 890:Drivers/STM32F0xx_StdPeriph_Driver/src/stm32f0xx_flash.c ****   */
 891:Drivers/STM32F0xx_StdPeriph_Driver/src/stm32f0xx_flash.c **** FLASH_Status FLASH_OB_WriteUser(uint8_t OB_USER)
 892:Drivers/STM32F0xx_StdPeriph_Driver/src/stm32f0xx_flash.c **** {
 893:Drivers/STM32F0xx_StdPeriph_Driver/src/stm32f0xx_flash.c ****   FLASH_Status status = FLASH_COMPLETE; 
 894:Drivers/STM32F0xx_StdPeriph_Driver/src/stm32f0xx_flash.c **** 
 895:Drivers/STM32F0xx_StdPeriph_Driver/src/stm32f0xx_flash.c ****   /* Wait for last operation to be completed */
 896:Drivers/STM32F0xx_StdPeriph_Driver/src/stm32f0xx_flash.c ****   status = FLASH_WaitForLastOperation(FLASH_ER_PRG_TIMEOUT);
 897:Drivers/STM32F0xx_StdPeriph_Driver/src/stm32f0xx_flash.c ****   
 898:Drivers/STM32F0xx_StdPeriph_Driver/src/stm32f0xx_flash.c ****   if(status == FLASH_COMPLETE)
 899:Drivers/STM32F0xx_StdPeriph_Driver/src/stm32f0xx_flash.c ****   {
 900:Drivers/STM32F0xx_StdPeriph_Driver/src/stm32f0xx_flash.c ****     /* Enable the Option Bytes Programming operation */
 901:Drivers/STM32F0xx_StdPeriph_Driver/src/stm32f0xx_flash.c ****     FLASH->CR |= FLASH_CR_OPTPG; 
 902:Drivers/STM32F0xx_StdPeriph_Driver/src/stm32f0xx_flash.c **** 
 903:Drivers/STM32F0xx_StdPeriph_Driver/src/stm32f0xx_flash.c ****     OB->USER = OB_USER | 0x88;
 904:Drivers/STM32F0xx_StdPeriph_Driver/src/stm32f0xx_flash.c ****   
 905:Drivers/STM32F0xx_StdPeriph_Driver/src/stm32f0xx_flash.c ****     /* Wait for last operation to be completed */
 906:Drivers/STM32F0xx_StdPeriph_Driver/src/stm32f0xx_flash.c ****     status = FLASH_WaitForLastOperation(FLASH_ER_PRG_TIMEOUT);
 907:Drivers/STM32F0xx_StdPeriph_Driver/src/stm32f0xx_flash.c **** 
 908:Drivers/STM32F0xx_StdPeriph_Driver/src/stm32f0xx_flash.c ****     if(status != FLASH_TIMEOUT)
 909:Drivers/STM32F0xx_StdPeriph_Driver/src/stm32f0xx_flash.c ****     {
 910:Drivers/STM32F0xx_StdPeriph_Driver/src/stm32f0xx_flash.c ****       /* If the program operation is completed, disable the OPTPG Bit */
 911:Drivers/STM32F0xx_StdPeriph_Driver/src/stm32f0xx_flash.c ****       FLASH->CR &= ~FLASH_CR_OPTPG;
 912:Drivers/STM32F0xx_StdPeriph_Driver/src/stm32f0xx_flash.c ****     }
 913:Drivers/STM32F0xx_StdPeriph_Driver/src/stm32f0xx_flash.c ****   }    
 914:Drivers/STM32F0xx_StdPeriph_Driver/src/stm32f0xx_flash.c ****   /* Return the Option Byte program Status */
 915:Drivers/STM32F0xx_StdPeriph_Driver/src/stm32f0xx_flash.c ****   return status;
 916:Drivers/STM32F0xx_StdPeriph_Driver/src/stm32f0xx_flash.c **** 
 917:Drivers/STM32F0xx_StdPeriph_Driver/src/stm32f0xx_flash.c **** }
 918:Drivers/STM32F0xx_StdPeriph_Driver/src/stm32f0xx_flash.c **** 
ARM GAS  /tmp/ccL3hku5.s 			page 23


 919:Drivers/STM32F0xx_StdPeriph_Driver/src/stm32f0xx_flash.c **** /**
 920:Drivers/STM32F0xx_StdPeriph_Driver/src/stm32f0xx_flash.c ****   * @brief  Programs a half word at a specified Option Byte Data address.
 921:Drivers/STM32F0xx_StdPeriph_Driver/src/stm32f0xx_flash.c ****   * @note    To correctly run this function, the FLASH_OB_Unlock() function
 922:Drivers/STM32F0xx_StdPeriph_Driver/src/stm32f0xx_flash.c ****   *           must be called before.
 923:Drivers/STM32F0xx_StdPeriph_Driver/src/stm32f0xx_flash.c ****   *          Call the FLASH_OB_Lock() to disable the flash control register access and the option b
 924:Drivers/STM32F0xx_StdPeriph_Driver/src/stm32f0xx_flash.c ****   *          (recommended to protect the FLASH memory against possible unwanted operation)
 925:Drivers/STM32F0xx_StdPeriph_Driver/src/stm32f0xx_flash.c ****   * @param  Address: specifies the address to be programmed.
 926:Drivers/STM32F0xx_StdPeriph_Driver/src/stm32f0xx_flash.c ****   *   This parameter can be 0x1FFFF804 or 0x1FFFF806. 
 927:Drivers/STM32F0xx_StdPeriph_Driver/src/stm32f0xx_flash.c ****   * @param  Data: specifies the data to be programmed.
 928:Drivers/STM32F0xx_StdPeriph_Driver/src/stm32f0xx_flash.c ****   * @retval FLASH Status: The returned value can be: FLASH_ERROR_PG,
 929:Drivers/STM32F0xx_StdPeriph_Driver/src/stm32f0xx_flash.c ****   *         FLASH_ERROR_WRP, FLASH_COMPLETE or FLASH_TIMEOUT.
 930:Drivers/STM32F0xx_StdPeriph_Driver/src/stm32f0xx_flash.c ****   */
 931:Drivers/STM32F0xx_StdPeriph_Driver/src/stm32f0xx_flash.c **** FLASH_Status FLASH_ProgramOptionByteData(uint32_t Address, uint8_t Data)
 932:Drivers/STM32F0xx_StdPeriph_Driver/src/stm32f0xx_flash.c **** {
 933:Drivers/STM32F0xx_StdPeriph_Driver/src/stm32f0xx_flash.c ****   FLASH_Status status = FLASH_COMPLETE;
 934:Drivers/STM32F0xx_StdPeriph_Driver/src/stm32f0xx_flash.c ****   /* Check the parameters */
 935:Drivers/STM32F0xx_StdPeriph_Driver/src/stm32f0xx_flash.c ****   assert_param(IS_OB_DATA_ADDRESS(Address));
 936:Drivers/STM32F0xx_StdPeriph_Driver/src/stm32f0xx_flash.c ****   status = FLASH_WaitForLastOperation(FLASH_ER_PRG_TIMEOUT);
 937:Drivers/STM32F0xx_StdPeriph_Driver/src/stm32f0xx_flash.c **** 
 938:Drivers/STM32F0xx_StdPeriph_Driver/src/stm32f0xx_flash.c ****   if(status == FLASH_COMPLETE)
 939:Drivers/STM32F0xx_StdPeriph_Driver/src/stm32f0xx_flash.c ****   {
 940:Drivers/STM32F0xx_StdPeriph_Driver/src/stm32f0xx_flash.c ****     /* Enables the Option Bytes Programming operation */
 941:Drivers/STM32F0xx_StdPeriph_Driver/src/stm32f0xx_flash.c ****     FLASH->CR |= FLASH_CR_OPTPG; 
 942:Drivers/STM32F0xx_StdPeriph_Driver/src/stm32f0xx_flash.c ****     *(__IO uint16_t*)Address = Data;
 943:Drivers/STM32F0xx_StdPeriph_Driver/src/stm32f0xx_flash.c ****     
 944:Drivers/STM32F0xx_StdPeriph_Driver/src/stm32f0xx_flash.c ****     /* Wait for last operation to be completed */
 945:Drivers/STM32F0xx_StdPeriph_Driver/src/stm32f0xx_flash.c ****     status = FLASH_WaitForLastOperation(FLASH_ER_PRG_TIMEOUT);
 946:Drivers/STM32F0xx_StdPeriph_Driver/src/stm32f0xx_flash.c ****     
 947:Drivers/STM32F0xx_StdPeriph_Driver/src/stm32f0xx_flash.c ****     if(status != FLASH_TIMEOUT)
 948:Drivers/STM32F0xx_StdPeriph_Driver/src/stm32f0xx_flash.c ****     {
 949:Drivers/STM32F0xx_StdPeriph_Driver/src/stm32f0xx_flash.c ****       /* If the program operation is completed, disable the OPTPG Bit */
 950:Drivers/STM32F0xx_StdPeriph_Driver/src/stm32f0xx_flash.c ****       FLASH->CR &= ~FLASH_CR_OPTPG;
 951:Drivers/STM32F0xx_StdPeriph_Driver/src/stm32f0xx_flash.c ****     }
 952:Drivers/STM32F0xx_StdPeriph_Driver/src/stm32f0xx_flash.c ****   }
 953:Drivers/STM32F0xx_StdPeriph_Driver/src/stm32f0xx_flash.c ****   /* Return the Option Byte Data Program Status */
 954:Drivers/STM32F0xx_StdPeriph_Driver/src/stm32f0xx_flash.c ****   return status;
 955:Drivers/STM32F0xx_StdPeriph_Driver/src/stm32f0xx_flash.c **** }
 956:Drivers/STM32F0xx_StdPeriph_Driver/src/stm32f0xx_flash.c **** 
 957:Drivers/STM32F0xx_StdPeriph_Driver/src/stm32f0xx_flash.c **** /**
 958:Drivers/STM32F0xx_StdPeriph_Driver/src/stm32f0xx_flash.c ****   * @brief  Returns the FLASH User Option Bytes values.
 959:Drivers/STM32F0xx_StdPeriph_Driver/src/stm32f0xx_flash.c ****   * @param  None
 960:Drivers/STM32F0xx_StdPeriph_Driver/src/stm32f0xx_flash.c ****   * @retval The FLASH User Option Bytes .
 961:Drivers/STM32F0xx_StdPeriph_Driver/src/stm32f0xx_flash.c ****   */
 962:Drivers/STM32F0xx_StdPeriph_Driver/src/stm32f0xx_flash.c **** uint8_t FLASH_OB_GetUser(void)
 963:Drivers/STM32F0xx_StdPeriph_Driver/src/stm32f0xx_flash.c **** {
 351              		.loc 1 963 1 is_stmt 1 view -0
 352              		.cfi_startproc
 353              		@ args = 0, pretend = 0, frame = 0
 354              		@ frame_needed = 0, uses_anonymous_args = 0
 355              		@ link register save eliminated.
 964:Drivers/STM32F0xx_StdPeriph_Driver/src/stm32f0xx_flash.c ****   /* Return the User Option Byte */
 965:Drivers/STM32F0xx_StdPeriph_Driver/src/stm32f0xx_flash.c ****   return (uint8_t)(FLASH->OBR >> 8);
 356              		.loc 1 965 3 view .LVU62
 357              		.loc 1 965 25 is_stmt 0 view .LVU63
 358 0000 024B     		ldr	r3, .L32
 359 0002 D869     		ldr	r0, [r3, #28]
 360              		.loc 1 965 31 view .LVU64
ARM GAS  /tmp/ccL3hku5.s 			page 24


 361 0004 000A     		lsrs	r0, r0, #8
 362              		.loc 1 965 10 view .LVU65
 363 0006 C0B2     		uxtb	r0, r0
 966:Drivers/STM32F0xx_StdPeriph_Driver/src/stm32f0xx_flash.c **** }
 364              		.loc 1 966 1 view .LVU66
 365              		@ sp needed
 366 0008 7047     		bx	lr
 367              	.L33:
 368 000a C046     		.align	2
 369              	.L32:
 370 000c 00200240 		.word	1073881088
 371              		.cfi_endproc
 372              	.LFE61:
 374              		.section	.text.FLASH_OB_GetWRP,"ax",%progbits
 375              		.align	1
 376              		.global	FLASH_OB_GetWRP
 377              		.syntax unified
 378              		.code	16
 379              		.thumb_func
 380              		.fpu softvfp
 382              	FLASH_OB_GetWRP:
 383              	.LFB62:
 967:Drivers/STM32F0xx_StdPeriph_Driver/src/stm32f0xx_flash.c **** 
 968:Drivers/STM32F0xx_StdPeriph_Driver/src/stm32f0xx_flash.c **** /**
 969:Drivers/STM32F0xx_StdPeriph_Driver/src/stm32f0xx_flash.c ****   * @brief  Returns the FLASH Write Protection Option Bytes value.
 970:Drivers/STM32F0xx_StdPeriph_Driver/src/stm32f0xx_flash.c ****   * @param  None
 971:Drivers/STM32F0xx_StdPeriph_Driver/src/stm32f0xx_flash.c ****   * @retval The FLASH Write Protection Option Bytes value
 972:Drivers/STM32F0xx_StdPeriph_Driver/src/stm32f0xx_flash.c ****   */
 973:Drivers/STM32F0xx_StdPeriph_Driver/src/stm32f0xx_flash.c **** uint32_t FLASH_OB_GetWRP(void)
 974:Drivers/STM32F0xx_StdPeriph_Driver/src/stm32f0xx_flash.c **** {
 384              		.loc 1 974 1 is_stmt 1 view -0
 385              		.cfi_startproc
 386              		@ args = 0, pretend = 0, frame = 0
 387              		@ frame_needed = 0, uses_anonymous_args = 0
 388              		@ link register save eliminated.
 975:Drivers/STM32F0xx_StdPeriph_Driver/src/stm32f0xx_flash.c ****   /* Return the FLASH write protection Register value */
 976:Drivers/STM32F0xx_StdPeriph_Driver/src/stm32f0xx_flash.c ****   return (uint32_t)(FLASH->WRPR);
 389              		.loc 1 976 3 view .LVU68
 390              		.loc 1 976 10 is_stmt 0 view .LVU69
 391 0000 014B     		ldr	r3, .L35
 392 0002 186A     		ldr	r0, [r3, #32]
 977:Drivers/STM32F0xx_StdPeriph_Driver/src/stm32f0xx_flash.c **** }
 393              		.loc 1 977 1 view .LVU70
 394              		@ sp needed
 395 0004 7047     		bx	lr
 396              	.L36:
 397 0006 C046     		.align	2
 398              	.L35:
 399 0008 00200240 		.word	1073881088
 400              		.cfi_endproc
 401              	.LFE62:
 403              		.section	.text.FLASH_OB_GetRDP,"ax",%progbits
 404              		.align	1
 405              		.global	FLASH_OB_GetRDP
 406              		.syntax unified
 407              		.code	16
 408              		.thumb_func
ARM GAS  /tmp/ccL3hku5.s 			page 25


 409              		.fpu softvfp
 411              	FLASH_OB_GetRDP:
 412              	.LFB63:
 978:Drivers/STM32F0xx_StdPeriph_Driver/src/stm32f0xx_flash.c **** 
 979:Drivers/STM32F0xx_StdPeriph_Driver/src/stm32f0xx_flash.c **** /**
 980:Drivers/STM32F0xx_StdPeriph_Driver/src/stm32f0xx_flash.c ****   * @brief  Checks whether the FLASH Read out Protection Status is set or not.
 981:Drivers/STM32F0xx_StdPeriph_Driver/src/stm32f0xx_flash.c ****   * @param  None
 982:Drivers/STM32F0xx_StdPeriph_Driver/src/stm32f0xx_flash.c ****   * @retval FLASH ReadOut Protection Status(SET or RESET)
 983:Drivers/STM32F0xx_StdPeriph_Driver/src/stm32f0xx_flash.c ****   */
 984:Drivers/STM32F0xx_StdPeriph_Driver/src/stm32f0xx_flash.c **** FlagStatus FLASH_OB_GetRDP(void)
 985:Drivers/STM32F0xx_StdPeriph_Driver/src/stm32f0xx_flash.c **** {
 413              		.loc 1 985 1 is_stmt 1 view -0
 414              		.cfi_startproc
 415              		@ args = 0, pretend = 0, frame = 0
 416              		@ frame_needed = 0, uses_anonymous_args = 0
 417              		@ link register save eliminated.
 986:Drivers/STM32F0xx_StdPeriph_Driver/src/stm32f0xx_flash.c ****   FlagStatus readstatus = RESET;
 418              		.loc 1 986 3 view .LVU72
 419              	.LVL8:
 987:Drivers/STM32F0xx_StdPeriph_Driver/src/stm32f0xx_flash.c ****   
 988:Drivers/STM32F0xx_StdPeriph_Driver/src/stm32f0xx_flash.c ****   if ((uint8_t)(FLASH->OBR & (FLASH_OBR_RDPRT1 | FLASH_OBR_RDPRT2)) != RESET)
 420              		.loc 1 988 3 view .LVU73
 421              		.loc 1 988 22 is_stmt 0 view .LVU74
 422 0000 044B     		ldr	r3, .L40
 423 0002 DA69     		ldr	r2, [r3, #28]
 424              		.loc 1 988 7 view .LVU75
 425 0004 0623     		movs	r3, #6
 426              		.loc 1 988 6 view .LVU76
 427 0006 1A42     		tst	r2, r3
 428 0008 01D0     		beq	.L39
 989:Drivers/STM32F0xx_StdPeriph_Driver/src/stm32f0xx_flash.c ****   {
 990:Drivers/STM32F0xx_StdPeriph_Driver/src/stm32f0xx_flash.c ****     readstatus = SET;
 429              		.loc 1 990 16 view .LVU77
 430 000a 0120     		movs	r0, #1
 431              	.L38:
 432              	.LVL9:
 991:Drivers/STM32F0xx_StdPeriph_Driver/src/stm32f0xx_flash.c ****   }
 992:Drivers/STM32F0xx_StdPeriph_Driver/src/stm32f0xx_flash.c ****   else
 993:Drivers/STM32F0xx_StdPeriph_Driver/src/stm32f0xx_flash.c ****   {
 994:Drivers/STM32F0xx_StdPeriph_Driver/src/stm32f0xx_flash.c ****     readstatus = RESET;
 995:Drivers/STM32F0xx_StdPeriph_Driver/src/stm32f0xx_flash.c ****   }
 996:Drivers/STM32F0xx_StdPeriph_Driver/src/stm32f0xx_flash.c ****   return readstatus;
 433              		.loc 1 996 3 is_stmt 1 view .LVU78
 997:Drivers/STM32F0xx_StdPeriph_Driver/src/stm32f0xx_flash.c **** }
 434              		.loc 1 997 1 is_stmt 0 view .LVU79
 435              		@ sp needed
 436 000c 7047     		bx	lr
 437              	.LVL10:
 438              	.L39:
 994:Drivers/STM32F0xx_StdPeriph_Driver/src/stm32f0xx_flash.c ****   }
 439              		.loc 1 994 16 view .LVU80
 440 000e 0020     		movs	r0, #0
 441 0010 FCE7     		b	.L38
 442              	.L41:
 443 0012 C046     		.align	2
 444              	.L40:
 445 0014 00200240 		.word	1073881088
ARM GAS  /tmp/ccL3hku5.s 			page 26


 446              		.cfi_endproc
 447              	.LFE63:
 449              		.section	.text.FLASH_ITConfig,"ax",%progbits
 450              		.align	1
 451              		.global	FLASH_ITConfig
 452              		.syntax unified
 453              		.code	16
 454              		.thumb_func
 455              		.fpu softvfp
 457              	FLASH_ITConfig:
 458              	.LVL11:
 459              	.LFB64:
 998:Drivers/STM32F0xx_StdPeriph_Driver/src/stm32f0xx_flash.c **** 
 999:Drivers/STM32F0xx_StdPeriph_Driver/src/stm32f0xx_flash.c **** /**
1000:Drivers/STM32F0xx_StdPeriph_Driver/src/stm32f0xx_flash.c ****   * @}
1001:Drivers/STM32F0xx_StdPeriph_Driver/src/stm32f0xx_flash.c ****   */
1002:Drivers/STM32F0xx_StdPeriph_Driver/src/stm32f0xx_flash.c **** 
1003:Drivers/STM32F0xx_StdPeriph_Driver/src/stm32f0xx_flash.c **** /** @defgroup FLASH_Group4 Interrupts and flags management functions
1004:Drivers/STM32F0xx_StdPeriph_Driver/src/stm32f0xx_flash.c ****  *  @brief   Interrupts and flags management functions
1005:Drivers/STM32F0xx_StdPeriph_Driver/src/stm32f0xx_flash.c ****  *
1006:Drivers/STM32F0xx_StdPeriph_Driver/src/stm32f0xx_flash.c **** @verbatim   
1007:Drivers/STM32F0xx_StdPeriph_Driver/src/stm32f0xx_flash.c ****  ===============================================================================
1008:Drivers/STM32F0xx_StdPeriph_Driver/src/stm32f0xx_flash.c ****              ##### Interrupts and flags management functions #####
1009:Drivers/STM32F0xx_StdPeriph_Driver/src/stm32f0xx_flash.c ****  ===============================================================================  
1010:Drivers/STM32F0xx_StdPeriph_Driver/src/stm32f0xx_flash.c **** 
1011:Drivers/STM32F0xx_StdPeriph_Driver/src/stm32f0xx_flash.c **** @endverbatim
1012:Drivers/STM32F0xx_StdPeriph_Driver/src/stm32f0xx_flash.c ****   * @{
1013:Drivers/STM32F0xx_StdPeriph_Driver/src/stm32f0xx_flash.c ****   */
1014:Drivers/STM32F0xx_StdPeriph_Driver/src/stm32f0xx_flash.c **** 
1015:Drivers/STM32F0xx_StdPeriph_Driver/src/stm32f0xx_flash.c **** /**
1016:Drivers/STM32F0xx_StdPeriph_Driver/src/stm32f0xx_flash.c ****   * @brief  Enables or disables the specified FLASH interrupts.
1017:Drivers/STM32F0xx_StdPeriph_Driver/src/stm32f0xx_flash.c ****   * @param  FLASH_IT: specifies the FLASH interrupt sources to be enabled or 
1018:Drivers/STM32F0xx_StdPeriph_Driver/src/stm32f0xx_flash.c ****   *         disabled.
1019:Drivers/STM32F0xx_StdPeriph_Driver/src/stm32f0xx_flash.c ****   *         This parameter can be any combination of the following values:
1020:Drivers/STM32F0xx_StdPeriph_Driver/src/stm32f0xx_flash.c ****   *             @arg FLASH_IT_EOP: FLASH end of programming Interrupt
1021:Drivers/STM32F0xx_StdPeriph_Driver/src/stm32f0xx_flash.c ****   *             @arg FLASH_IT_ERR: FLASH Error Interrupt
1022:Drivers/STM32F0xx_StdPeriph_Driver/src/stm32f0xx_flash.c ****   * @retval None 
1023:Drivers/STM32F0xx_StdPeriph_Driver/src/stm32f0xx_flash.c ****   */
1024:Drivers/STM32F0xx_StdPeriph_Driver/src/stm32f0xx_flash.c **** void FLASH_ITConfig(uint32_t FLASH_IT, FunctionalState NewState)
1025:Drivers/STM32F0xx_StdPeriph_Driver/src/stm32f0xx_flash.c **** {
 460              		.loc 1 1025 1 is_stmt 1 view -0
 461              		.cfi_startproc
 462              		@ args = 0, pretend = 0, frame = 0
 463              		@ frame_needed = 0, uses_anonymous_args = 0
 464              		@ link register save eliminated.
1026:Drivers/STM32F0xx_StdPeriph_Driver/src/stm32f0xx_flash.c ****   /* Check the parameters */
1027:Drivers/STM32F0xx_StdPeriph_Driver/src/stm32f0xx_flash.c ****   assert_param(IS_FLASH_IT(FLASH_IT)); 
 465              		.loc 1 1027 3 view .LVU82
1028:Drivers/STM32F0xx_StdPeriph_Driver/src/stm32f0xx_flash.c ****   assert_param(IS_FUNCTIONAL_STATE(NewState));
 466              		.loc 1 1028 3 view .LVU83
1029:Drivers/STM32F0xx_StdPeriph_Driver/src/stm32f0xx_flash.c ****   
1030:Drivers/STM32F0xx_StdPeriph_Driver/src/stm32f0xx_flash.c ****   if(NewState != DISABLE)
 467              		.loc 1 1030 3 view .LVU84
 468              		.loc 1 1030 5 is_stmt 0 view .LVU85
 469 0000 0029     		cmp	r1, #0
 470 0002 04D0     		beq	.L43
1031:Drivers/STM32F0xx_StdPeriph_Driver/src/stm32f0xx_flash.c ****   {
ARM GAS  /tmp/ccL3hku5.s 			page 27


1032:Drivers/STM32F0xx_StdPeriph_Driver/src/stm32f0xx_flash.c ****     /* Enable the interrupt sources */
1033:Drivers/STM32F0xx_StdPeriph_Driver/src/stm32f0xx_flash.c ****     FLASH->CR |= FLASH_IT;
 471              		.loc 1 1033 5 is_stmt 1 view .LVU86
 472              		.loc 1 1033 15 is_stmt 0 view .LVU87
 473 0004 044A     		ldr	r2, .L45
 474 0006 1369     		ldr	r3, [r2, #16]
 475 0008 1843     		orrs	r0, r3
 476              	.LVL12:
 477              		.loc 1 1033 15 view .LVU88
 478 000a 1061     		str	r0, [r2, #16]
 479              	.L42:
1034:Drivers/STM32F0xx_StdPeriph_Driver/src/stm32f0xx_flash.c ****   }
1035:Drivers/STM32F0xx_StdPeriph_Driver/src/stm32f0xx_flash.c ****   else
1036:Drivers/STM32F0xx_StdPeriph_Driver/src/stm32f0xx_flash.c ****   {
1037:Drivers/STM32F0xx_StdPeriph_Driver/src/stm32f0xx_flash.c ****     /* Disable the interrupt sources */
1038:Drivers/STM32F0xx_StdPeriph_Driver/src/stm32f0xx_flash.c ****     FLASH->CR &= ~(uint32_t)FLASH_IT;
1039:Drivers/STM32F0xx_StdPeriph_Driver/src/stm32f0xx_flash.c ****   }
1040:Drivers/STM32F0xx_StdPeriph_Driver/src/stm32f0xx_flash.c **** }
 480              		.loc 1 1040 1 view .LVU89
 481              		@ sp needed
 482 000c 7047     		bx	lr
 483              	.LVL13:
 484              	.L43:
1038:Drivers/STM32F0xx_StdPeriph_Driver/src/stm32f0xx_flash.c ****   }
 485              		.loc 1 1038 5 is_stmt 1 view .LVU90
1038:Drivers/STM32F0xx_StdPeriph_Driver/src/stm32f0xx_flash.c ****   }
 486              		.loc 1 1038 15 is_stmt 0 view .LVU91
 487 000e 024A     		ldr	r2, .L45
 488 0010 1369     		ldr	r3, [r2, #16]
 489 0012 8343     		bics	r3, r0
 490 0014 1361     		str	r3, [r2, #16]
 491              		.loc 1 1040 1 view .LVU92
 492 0016 F9E7     		b	.L42
 493              	.L46:
 494              		.align	2
 495              	.L45:
 496 0018 00200240 		.word	1073881088
 497              		.cfi_endproc
 498              	.LFE64:
 500              		.section	.text.FLASH_GetFlagStatus,"ax",%progbits
 501              		.align	1
 502              		.global	FLASH_GetFlagStatus
 503              		.syntax unified
 504              		.code	16
 505              		.thumb_func
 506              		.fpu softvfp
 508              	FLASH_GetFlagStatus:
 509              	.LVL14:
 510              	.LFB65:
1041:Drivers/STM32F0xx_StdPeriph_Driver/src/stm32f0xx_flash.c **** 
1042:Drivers/STM32F0xx_StdPeriph_Driver/src/stm32f0xx_flash.c **** /**
1043:Drivers/STM32F0xx_StdPeriph_Driver/src/stm32f0xx_flash.c ****   * @brief  Checks whether the specified FLASH flag is set or not.
1044:Drivers/STM32F0xx_StdPeriph_Driver/src/stm32f0xx_flash.c ****   * @param  FLASH_FLAG: specifies the FLASH flag to check.
1045:Drivers/STM32F0xx_StdPeriph_Driver/src/stm32f0xx_flash.c ****   *         This parameter can be one of the following values:
1046:Drivers/STM32F0xx_StdPeriph_Driver/src/stm32f0xx_flash.c ****   *             @arg FLASH_FLAG_BSY: FLASH write/erase operations in progress flag 
1047:Drivers/STM32F0xx_StdPeriph_Driver/src/stm32f0xx_flash.c ****   *             @arg FLASH_FLAG_PGERR: FLASH Programming error flag flag
1048:Drivers/STM32F0xx_StdPeriph_Driver/src/stm32f0xx_flash.c ****   *             @arg FLASH_FLAG_WRPERR: FLASH Write protected error flag
ARM GAS  /tmp/ccL3hku5.s 			page 28


1049:Drivers/STM32F0xx_StdPeriph_Driver/src/stm32f0xx_flash.c ****   *             @arg FLASH_FLAG_EOP: FLASH End of Programming flag
1050:Drivers/STM32F0xx_StdPeriph_Driver/src/stm32f0xx_flash.c ****   * @retval The new state of FLASH_FLAG (SET or RESET).
1051:Drivers/STM32F0xx_StdPeriph_Driver/src/stm32f0xx_flash.c ****   */
1052:Drivers/STM32F0xx_StdPeriph_Driver/src/stm32f0xx_flash.c **** FlagStatus FLASH_GetFlagStatus(uint32_t FLASH_FLAG)
1053:Drivers/STM32F0xx_StdPeriph_Driver/src/stm32f0xx_flash.c **** {
 511              		.loc 1 1053 1 is_stmt 1 view -0
 512              		.cfi_startproc
 513              		@ args = 0, pretend = 0, frame = 0
 514              		@ frame_needed = 0, uses_anonymous_args = 0
 515              		@ link register save eliminated.
1054:Drivers/STM32F0xx_StdPeriph_Driver/src/stm32f0xx_flash.c ****   FlagStatus bitstatus = RESET;
 516              		.loc 1 1054 3 view .LVU94
1055:Drivers/STM32F0xx_StdPeriph_Driver/src/stm32f0xx_flash.c **** 
1056:Drivers/STM32F0xx_StdPeriph_Driver/src/stm32f0xx_flash.c ****   /* Check the parameters */
1057:Drivers/STM32F0xx_StdPeriph_Driver/src/stm32f0xx_flash.c ****   assert_param(IS_FLASH_GET_FLAG(FLASH_FLAG));
 517              		.loc 1 1057 3 view .LVU95
1058:Drivers/STM32F0xx_StdPeriph_Driver/src/stm32f0xx_flash.c **** 
1059:Drivers/STM32F0xx_StdPeriph_Driver/src/stm32f0xx_flash.c ****   if((FLASH->SR & FLASH_FLAG) != (uint32_t)RESET)
 518              		.loc 1 1059 3 view .LVU96
 519              		.loc 1 1059 12 is_stmt 0 view .LVU97
 520 0000 034B     		ldr	r3, .L50
 521 0002 DB68     		ldr	r3, [r3, #12]
 522              		.loc 1 1059 5 view .LVU98
 523 0004 1842     		tst	r0, r3
 524 0006 01D0     		beq	.L49
1060:Drivers/STM32F0xx_StdPeriph_Driver/src/stm32f0xx_flash.c ****   {
1061:Drivers/STM32F0xx_StdPeriph_Driver/src/stm32f0xx_flash.c ****     bitstatus = SET;
 525              		.loc 1 1061 15 view .LVU99
 526 0008 0120     		movs	r0, #1
 527              	.LVL15:
 528              	.L48:
1062:Drivers/STM32F0xx_StdPeriph_Driver/src/stm32f0xx_flash.c ****   }
1063:Drivers/STM32F0xx_StdPeriph_Driver/src/stm32f0xx_flash.c ****   else
1064:Drivers/STM32F0xx_StdPeriph_Driver/src/stm32f0xx_flash.c ****   {
1065:Drivers/STM32F0xx_StdPeriph_Driver/src/stm32f0xx_flash.c ****     bitstatus = RESET;
1066:Drivers/STM32F0xx_StdPeriph_Driver/src/stm32f0xx_flash.c ****   }
1067:Drivers/STM32F0xx_StdPeriph_Driver/src/stm32f0xx_flash.c ****   /* Return the new state of FLASH_FLAG (SET or RESET) */
1068:Drivers/STM32F0xx_StdPeriph_Driver/src/stm32f0xx_flash.c ****   return bitstatus; 
 529              		.loc 1 1068 3 is_stmt 1 view .LVU100
1069:Drivers/STM32F0xx_StdPeriph_Driver/src/stm32f0xx_flash.c **** }
 530              		.loc 1 1069 1 is_stmt 0 view .LVU101
 531              		@ sp needed
 532 000a 7047     		bx	lr
 533              	.LVL16:
 534              	.L49:
1065:Drivers/STM32F0xx_StdPeriph_Driver/src/stm32f0xx_flash.c ****   }
 535              		.loc 1 1065 15 view .LVU102
 536 000c 0020     		movs	r0, #0
 537              	.LVL17:
1065:Drivers/STM32F0xx_StdPeriph_Driver/src/stm32f0xx_flash.c ****   }
 538              		.loc 1 1065 15 view .LVU103
 539 000e FCE7     		b	.L48
 540              	.L51:
 541              		.align	2
 542              	.L50:
 543 0010 00200240 		.word	1073881088
 544              		.cfi_endproc
ARM GAS  /tmp/ccL3hku5.s 			page 29


 545              	.LFE65:
 547              		.section	.text.FLASH_ClearFlag,"ax",%progbits
 548              		.align	1
 549              		.global	FLASH_ClearFlag
 550              		.syntax unified
 551              		.code	16
 552              		.thumb_func
 553              		.fpu softvfp
 555              	FLASH_ClearFlag:
 556              	.LVL18:
 557              	.LFB66:
1070:Drivers/STM32F0xx_StdPeriph_Driver/src/stm32f0xx_flash.c **** 
1071:Drivers/STM32F0xx_StdPeriph_Driver/src/stm32f0xx_flash.c **** /**
1072:Drivers/STM32F0xx_StdPeriph_Driver/src/stm32f0xx_flash.c ****   * @brief  Clears the FLASH's pending flags.
1073:Drivers/STM32F0xx_StdPeriph_Driver/src/stm32f0xx_flash.c ****   * @param  FLASH_FLAG: specifies the FLASH flags to clear.
1074:Drivers/STM32F0xx_StdPeriph_Driver/src/stm32f0xx_flash.c ****   *         This parameter can be any combination of the following values:
1075:Drivers/STM32F0xx_StdPeriph_Driver/src/stm32f0xx_flash.c ****   *             @arg FLASH_FLAG_PGERR: FLASH Programming error flag flag
1076:Drivers/STM32F0xx_StdPeriph_Driver/src/stm32f0xx_flash.c ****   *             @arg FLASH_FLAG_WRPERR: FLASH Write protected error flag
1077:Drivers/STM32F0xx_StdPeriph_Driver/src/stm32f0xx_flash.c ****   *             @arg FLASH_FLAG_EOP: FLASH End of Programming flag
1078:Drivers/STM32F0xx_StdPeriph_Driver/src/stm32f0xx_flash.c ****   * @retval None
1079:Drivers/STM32F0xx_StdPeriph_Driver/src/stm32f0xx_flash.c ****   */
1080:Drivers/STM32F0xx_StdPeriph_Driver/src/stm32f0xx_flash.c **** void FLASH_ClearFlag(uint32_t FLASH_FLAG)
1081:Drivers/STM32F0xx_StdPeriph_Driver/src/stm32f0xx_flash.c **** {
 558              		.loc 1 1081 1 is_stmt 1 view -0
 559              		.cfi_startproc
 560              		@ args = 0, pretend = 0, frame = 0
 561              		@ frame_needed = 0, uses_anonymous_args = 0
 562              		@ link register save eliminated.
1082:Drivers/STM32F0xx_StdPeriph_Driver/src/stm32f0xx_flash.c ****   /* Check the parameters */
1083:Drivers/STM32F0xx_StdPeriph_Driver/src/stm32f0xx_flash.c ****   assert_param(IS_FLASH_CLEAR_FLAG(FLASH_FLAG));
 563              		.loc 1 1083 3 view .LVU105
1084:Drivers/STM32F0xx_StdPeriph_Driver/src/stm32f0xx_flash.c ****   
1085:Drivers/STM32F0xx_StdPeriph_Driver/src/stm32f0xx_flash.c ****   /* Clear the flags */
1086:Drivers/STM32F0xx_StdPeriph_Driver/src/stm32f0xx_flash.c ****   FLASH->SR = FLASH_FLAG;
 564              		.loc 1 1086 3 view .LVU106
 565              		.loc 1 1086 13 is_stmt 0 view .LVU107
 566 0000 014B     		ldr	r3, .L53
 567 0002 D860     		str	r0, [r3, #12]
1087:Drivers/STM32F0xx_StdPeriph_Driver/src/stm32f0xx_flash.c **** }
 568              		.loc 1 1087 1 view .LVU108
 569              		@ sp needed
 570 0004 7047     		bx	lr
 571              	.L54:
 572 0006 C046     		.align	2
 573              	.L53:
 574 0008 00200240 		.word	1073881088
 575              		.cfi_endproc
 576              	.LFE66:
 578              		.section	.text.FLASH_GetStatus,"ax",%progbits
 579              		.align	1
 580              		.global	FLASH_GetStatus
 581              		.syntax unified
 582              		.code	16
 583              		.thumb_func
 584              		.fpu softvfp
 586              	FLASH_GetStatus:
 587              	.LFB67:
ARM GAS  /tmp/ccL3hku5.s 			page 30


1088:Drivers/STM32F0xx_StdPeriph_Driver/src/stm32f0xx_flash.c **** 
1089:Drivers/STM32F0xx_StdPeriph_Driver/src/stm32f0xx_flash.c **** /**
1090:Drivers/STM32F0xx_StdPeriph_Driver/src/stm32f0xx_flash.c ****   * @brief  Returns the FLASH Status.
1091:Drivers/STM32F0xx_StdPeriph_Driver/src/stm32f0xx_flash.c ****   * @param  None
1092:Drivers/STM32F0xx_StdPeriph_Driver/src/stm32f0xx_flash.c ****   * @retval FLASH Status: The returned value can be: 
1093:Drivers/STM32F0xx_StdPeriph_Driver/src/stm32f0xx_flash.c ****   *         FLASH_BUSY, FLASH_ERROR_PROGRAM, FLASH_ERROR_WRP or FLASH_COMPLETE.
1094:Drivers/STM32F0xx_StdPeriph_Driver/src/stm32f0xx_flash.c ****   */
1095:Drivers/STM32F0xx_StdPeriph_Driver/src/stm32f0xx_flash.c **** FLASH_Status FLASH_GetStatus(void)
1096:Drivers/STM32F0xx_StdPeriph_Driver/src/stm32f0xx_flash.c **** {
 588              		.loc 1 1096 1 is_stmt 1 view -0
 589              		.cfi_startproc
 590              		@ args = 0, pretend = 0, frame = 0
 591              		@ frame_needed = 0, uses_anonymous_args = 0
 592              		@ link register save eliminated.
1097:Drivers/STM32F0xx_StdPeriph_Driver/src/stm32f0xx_flash.c ****   FLASH_Status FLASHstatus = FLASH_COMPLETE;
 593              		.loc 1 1097 3 view .LVU110
 594              	.LVL19:
1098:Drivers/STM32F0xx_StdPeriph_Driver/src/stm32f0xx_flash.c ****   
1099:Drivers/STM32F0xx_StdPeriph_Driver/src/stm32f0xx_flash.c ****   if((FLASH->SR & FLASH_FLAG_BSY) == FLASH_FLAG_BSY) 
 595              		.loc 1 1099 3 view .LVU111
 596              		.loc 1 1099 12 is_stmt 0 view .LVU112
 597 0000 094B     		ldr	r3, .L60
 598 0002 DB68     		ldr	r3, [r3, #12]
 599              		.loc 1 1099 5 view .LVU113
 600 0004 DB07     		lsls	r3, r3, #31
 601 0006 09D4     		bmi	.L57
1100:Drivers/STM32F0xx_StdPeriph_Driver/src/stm32f0xx_flash.c ****   {
1101:Drivers/STM32F0xx_StdPeriph_Driver/src/stm32f0xx_flash.c ****     FLASHstatus = FLASH_BUSY;
1102:Drivers/STM32F0xx_StdPeriph_Driver/src/stm32f0xx_flash.c ****   }
1103:Drivers/STM32F0xx_StdPeriph_Driver/src/stm32f0xx_flash.c ****   else 
1104:Drivers/STM32F0xx_StdPeriph_Driver/src/stm32f0xx_flash.c ****   {  
1105:Drivers/STM32F0xx_StdPeriph_Driver/src/stm32f0xx_flash.c ****     if((FLASH->SR & (uint32_t)FLASH_FLAG_WRPERR)!= (uint32_t)0x00)
 602              		.loc 1 1105 5 is_stmt 1 view .LVU114
 603              		.loc 1 1105 14 is_stmt 0 view .LVU115
 604 0008 074B     		ldr	r3, .L60
 605 000a DB68     		ldr	r3, [r3, #12]
 606              		.loc 1 1105 7 view .LVU116
 607 000c DB06     		lsls	r3, r3, #27
 608 000e 07D4     		bmi	.L58
1106:Drivers/STM32F0xx_StdPeriph_Driver/src/stm32f0xx_flash.c ****     { 
1107:Drivers/STM32F0xx_StdPeriph_Driver/src/stm32f0xx_flash.c ****       FLASHstatus = FLASH_ERROR_WRP;
1108:Drivers/STM32F0xx_StdPeriph_Driver/src/stm32f0xx_flash.c ****     }
1109:Drivers/STM32F0xx_StdPeriph_Driver/src/stm32f0xx_flash.c ****     else 
1110:Drivers/STM32F0xx_StdPeriph_Driver/src/stm32f0xx_flash.c ****     {
1111:Drivers/STM32F0xx_StdPeriph_Driver/src/stm32f0xx_flash.c ****       if((FLASH->SR & (uint32_t)(FLASH_SR_PGERR)) != (uint32_t)0x00)
 609              		.loc 1 1111 7 is_stmt 1 view .LVU117
 610              		.loc 1 1111 16 is_stmt 0 view .LVU118
 611 0010 054B     		ldr	r3, .L60
 612 0012 DB68     		ldr	r3, [r3, #12]
 613              		.loc 1 1111 9 view .LVU119
 614 0014 5B07     		lsls	r3, r3, #29
 615 0016 05D5     		bpl	.L59
1112:Drivers/STM32F0xx_StdPeriph_Driver/src/stm32f0xx_flash.c ****       {
1113:Drivers/STM32F0xx_StdPeriph_Driver/src/stm32f0xx_flash.c ****         FLASHstatus = FLASH_ERROR_PROGRAM; 
 616              		.loc 1 1113 21 view .LVU120
 617 0018 0320     		movs	r0, #3
 618 001a 00E0     		b	.L56
ARM GAS  /tmp/ccL3hku5.s 			page 31


 619              	.L57:
1101:Drivers/STM32F0xx_StdPeriph_Driver/src/stm32f0xx_flash.c ****   }
 620              		.loc 1 1101 17 view .LVU121
 621 001c 0120     		movs	r0, #1
 622              	.L56:
 623              	.LVL20:
1114:Drivers/STM32F0xx_StdPeriph_Driver/src/stm32f0xx_flash.c ****       }
1115:Drivers/STM32F0xx_StdPeriph_Driver/src/stm32f0xx_flash.c ****       else
1116:Drivers/STM32F0xx_StdPeriph_Driver/src/stm32f0xx_flash.c ****       {
1117:Drivers/STM32F0xx_StdPeriph_Driver/src/stm32f0xx_flash.c ****         FLASHstatus = FLASH_COMPLETE;
1118:Drivers/STM32F0xx_StdPeriph_Driver/src/stm32f0xx_flash.c ****       }
1119:Drivers/STM32F0xx_StdPeriph_Driver/src/stm32f0xx_flash.c ****     }
1120:Drivers/STM32F0xx_StdPeriph_Driver/src/stm32f0xx_flash.c ****   }
1121:Drivers/STM32F0xx_StdPeriph_Driver/src/stm32f0xx_flash.c ****   /* Return the FLASH Status */
1122:Drivers/STM32F0xx_StdPeriph_Driver/src/stm32f0xx_flash.c ****   return FLASHstatus;
 624              		.loc 1 1122 3 is_stmt 1 view .LVU122
1123:Drivers/STM32F0xx_StdPeriph_Driver/src/stm32f0xx_flash.c **** }
 625              		.loc 1 1123 1 is_stmt 0 view .LVU123
 626              		@ sp needed
 627 001e 7047     		bx	lr
 628              	.LVL21:
 629              	.L58:
1107:Drivers/STM32F0xx_StdPeriph_Driver/src/stm32f0xx_flash.c ****     }
 630              		.loc 1 1107 19 view .LVU124
 631 0020 0220     		movs	r0, #2
 632 0022 FCE7     		b	.L56
 633              	.L59:
1117:Drivers/STM32F0xx_StdPeriph_Driver/src/stm32f0xx_flash.c ****       }
 634              		.loc 1 1117 21 view .LVU125
 635 0024 0420     		movs	r0, #4
 636 0026 FAE7     		b	.L56
 637              	.L61:
 638              		.align	2
 639              	.L60:
 640 0028 00200240 		.word	1073881088
 641              		.cfi_endproc
 642              	.LFE67:
 644              		.section	.text.FLASH_WaitForLastOperation,"ax",%progbits
 645              		.align	1
 646              		.global	FLASH_WaitForLastOperation
 647              		.syntax unified
 648              		.code	16
 649              		.thumb_func
 650              		.fpu softvfp
 652              	FLASH_WaitForLastOperation:
 653              	.LVL22:
 654              	.LFB68:
1124:Drivers/STM32F0xx_StdPeriph_Driver/src/stm32f0xx_flash.c **** 
1125:Drivers/STM32F0xx_StdPeriph_Driver/src/stm32f0xx_flash.c **** 
1126:Drivers/STM32F0xx_StdPeriph_Driver/src/stm32f0xx_flash.c **** /**
1127:Drivers/STM32F0xx_StdPeriph_Driver/src/stm32f0xx_flash.c ****   * @brief  Waits for a FLASH operation to complete or a TIMEOUT to occur.
1128:Drivers/STM32F0xx_StdPeriph_Driver/src/stm32f0xx_flash.c ****   * @param  Timeout: FLASH programming Timeout
1129:Drivers/STM32F0xx_StdPeriph_Driver/src/stm32f0xx_flash.c ****   * @retval FLASH Status: The returned value can be: FLASH_BUSY, 
1130:Drivers/STM32F0xx_StdPeriph_Driver/src/stm32f0xx_flash.c ****   *         FLASH_ERROR_PROGRAM, FLASH_ERROR_WRP, FLASH_COMPLETE or FLASH_TIMEOUT.
1131:Drivers/STM32F0xx_StdPeriph_Driver/src/stm32f0xx_flash.c ****   */
1132:Drivers/STM32F0xx_StdPeriph_Driver/src/stm32f0xx_flash.c **** FLASH_Status FLASH_WaitForLastOperation(uint32_t Timeout)
1133:Drivers/STM32F0xx_StdPeriph_Driver/src/stm32f0xx_flash.c **** { 
ARM GAS  /tmp/ccL3hku5.s 			page 32


 655              		.loc 1 1133 1 is_stmt 1 view -0
 656              		.cfi_startproc
 657              		@ args = 0, pretend = 0, frame = 0
 658              		@ frame_needed = 0, uses_anonymous_args = 0
 659              		.loc 1 1133 1 is_stmt 0 view .LVU127
 660 0000 10B5     		push	{r4, lr}
 661              	.LCFI0:
 662              		.cfi_def_cfa_offset 8
 663              		.cfi_offset 4, -8
 664              		.cfi_offset 14, -4
 665 0002 0400     		movs	r4, r0
1134:Drivers/STM32F0xx_StdPeriph_Driver/src/stm32f0xx_flash.c ****   FLASH_Status status = FLASH_COMPLETE;
 666              		.loc 1 1134 3 is_stmt 1 view .LVU128
 667              	.LVL23:
1135:Drivers/STM32F0xx_StdPeriph_Driver/src/stm32f0xx_flash.c ****    
1136:Drivers/STM32F0xx_StdPeriph_Driver/src/stm32f0xx_flash.c ****   /* Check for the FLASH Status */
1137:Drivers/STM32F0xx_StdPeriph_Driver/src/stm32f0xx_flash.c ****   status = FLASH_GetStatus();
 668              		.loc 1 1137 3 view .LVU129
 669              		.loc 1 1137 12 is_stmt 0 view .LVU130
 670 0004 FFF7FEFF 		bl	FLASH_GetStatus
 671              	.LVL24:
1138:Drivers/STM32F0xx_StdPeriph_Driver/src/stm32f0xx_flash.c ****   
1139:Drivers/STM32F0xx_StdPeriph_Driver/src/stm32f0xx_flash.c ****   /* Wait for a FLASH operation to complete or a TIMEOUT to occur */
1140:Drivers/STM32F0xx_StdPeriph_Driver/src/stm32f0xx_flash.c ****   while((status == FLASH_BUSY) && (Timeout != 0x00))
 672              		.loc 1 1140 3 is_stmt 1 view .LVU131
 673              	.L63:
 674              		.loc 1 1140 8 view .LVU132
 675 0008 0128     		cmp	r0, #1
 676 000a 05D1     		bne	.L64
 677              		.loc 1 1140 32 is_stmt 0 discriminator 1 view .LVU133
 678 000c 002C     		cmp	r4, #0
 679 000e 03D0     		beq	.L64
1141:Drivers/STM32F0xx_StdPeriph_Driver/src/stm32f0xx_flash.c ****   {
1142:Drivers/STM32F0xx_StdPeriph_Driver/src/stm32f0xx_flash.c ****     status = FLASH_GetStatus();
 680              		.loc 1 1142 5 is_stmt 1 view .LVU134
 681              		.loc 1 1142 14 is_stmt 0 view .LVU135
 682 0010 FFF7FEFF 		bl	FLASH_GetStatus
 683              	.LVL25:
1143:Drivers/STM32F0xx_StdPeriph_Driver/src/stm32f0xx_flash.c ****     Timeout--;
 684              		.loc 1 1143 5 is_stmt 1 view .LVU136
 685              		.loc 1 1143 12 is_stmt 0 view .LVU137
 686 0014 013C     		subs	r4, r4, #1
 687              	.LVL26:
 688              		.loc 1 1143 12 view .LVU138
 689 0016 F7E7     		b	.L63
 690              	.L64:
1144:Drivers/STM32F0xx_StdPeriph_Driver/src/stm32f0xx_flash.c ****   }
1145:Drivers/STM32F0xx_StdPeriph_Driver/src/stm32f0xx_flash.c ****   
1146:Drivers/STM32F0xx_StdPeriph_Driver/src/stm32f0xx_flash.c ****   if(Timeout == 0x00 )
 691              		.loc 1 1146 3 is_stmt 1 view .LVU139
 692              		.loc 1 1146 5 is_stmt 0 view .LVU140
 693 0018 002C     		cmp	r4, #0
 694 001a 00D0     		beq	.L68
 695              	.LVL27:
 696              	.L66:
1147:Drivers/STM32F0xx_StdPeriph_Driver/src/stm32f0xx_flash.c ****   {
1148:Drivers/STM32F0xx_StdPeriph_Driver/src/stm32f0xx_flash.c ****     status = FLASH_TIMEOUT;
ARM GAS  /tmp/ccL3hku5.s 			page 33


1149:Drivers/STM32F0xx_StdPeriph_Driver/src/stm32f0xx_flash.c ****   }
1150:Drivers/STM32F0xx_StdPeriph_Driver/src/stm32f0xx_flash.c ****   /* Return the operation status */
1151:Drivers/STM32F0xx_StdPeriph_Driver/src/stm32f0xx_flash.c ****   return status;
 697              		.loc 1 1151 3 is_stmt 1 view .LVU141
1152:Drivers/STM32F0xx_StdPeriph_Driver/src/stm32f0xx_flash.c **** }
 698              		.loc 1 1152 1 is_stmt 0 view .LVU142
 699              		@ sp needed
 700              	.LVL28:
 701              		.loc 1 1152 1 view .LVU143
 702 001c 10BD     		pop	{r4, pc}
 703              	.LVL29:
 704              	.L68:
1148:Drivers/STM32F0xx_StdPeriph_Driver/src/stm32f0xx_flash.c ****   }
 705              		.loc 1 1148 12 view .LVU144
 706 001e 0520     		movs	r0, #5
 707              	.LVL30:
1148:Drivers/STM32F0xx_StdPeriph_Driver/src/stm32f0xx_flash.c ****   }
 708              		.loc 1 1148 12 view .LVU145
 709 0020 FCE7     		b	.L66
 710              		.cfi_endproc
 711              	.LFE68:
 713              		.section	.text.FLASH_ErasePage,"ax",%progbits
 714              		.align	1
 715              		.global	FLASH_ErasePage
 716              		.syntax unified
 717              		.code	16
 718              		.thumb_func
 719              		.fpu softvfp
 721              	FLASH_ErasePage:
 722              	.LVL31:
 723              	.LFB45:
 266:Drivers/STM32F0xx_StdPeriph_Driver/src/stm32f0xx_flash.c ****   FLASH_Status status = FLASH_COMPLETE;
 724              		.loc 1 266 1 is_stmt 1 view -0
 725              		.cfi_startproc
 726              		@ args = 0, pretend = 0, frame = 0
 727              		@ frame_needed = 0, uses_anonymous_args = 0
 266:Drivers/STM32F0xx_StdPeriph_Driver/src/stm32f0xx_flash.c ****   FLASH_Status status = FLASH_COMPLETE;
 728              		.loc 1 266 1 is_stmt 0 view .LVU147
 729 0000 70B5     		push	{r4, r5, r6, lr}
 730              	.LCFI1:
 731              		.cfi_def_cfa_offset 16
 732              		.cfi_offset 4, -16
 733              		.cfi_offset 5, -12
 734              		.cfi_offset 6, -8
 735              		.cfi_offset 14, -4
 736 0002 0400     		movs	r4, r0
 267:Drivers/STM32F0xx_StdPeriph_Driver/src/stm32f0xx_flash.c **** 
 737              		.loc 1 267 3 is_stmt 1 view .LVU148
 738              	.LVL32:
 270:Drivers/STM32F0xx_StdPeriph_Driver/src/stm32f0xx_flash.c ****  
 739              		.loc 1 270 3 view .LVU149
 273:Drivers/STM32F0xx_StdPeriph_Driver/src/stm32f0xx_flash.c ****   
 740              		.loc 1 273 3 view .LVU150
 273:Drivers/STM32F0xx_StdPeriph_Driver/src/stm32f0xx_flash.c ****   
 741              		.loc 1 273 12 is_stmt 0 view .LVU151
 742 0004 B020     		movs	r0, #176
 743              	.LVL33:
ARM GAS  /tmp/ccL3hku5.s 			page 34


 273:Drivers/STM32F0xx_StdPeriph_Driver/src/stm32f0xx_flash.c ****   
 744              		.loc 1 273 12 view .LVU152
 745 0006 0003     		lsls	r0, r0, #12
 746 0008 FFF7FEFF 		bl	FLASH_WaitForLastOperation
 747              	.LVL34:
 275:Drivers/STM32F0xx_StdPeriph_Driver/src/stm32f0xx_flash.c ****   { 
 748              		.loc 1 275 3 is_stmt 1 view .LVU153
 275:Drivers/STM32F0xx_StdPeriph_Driver/src/stm32f0xx_flash.c ****   { 
 749              		.loc 1 275 5 is_stmt 0 view .LVU154
 750 000c 0428     		cmp	r0, #4
 751 000e 00D0     		beq	.L71
 752              	.LVL35:
 753              	.L70:
 290:Drivers/STM32F0xx_StdPeriph_Driver/src/stm32f0xx_flash.c **** }
 754              		.loc 1 290 3 is_stmt 1 view .LVU155
 291:Drivers/STM32F0xx_StdPeriph_Driver/src/stm32f0xx_flash.c **** 
 755              		.loc 1 291 1 is_stmt 0 view .LVU156
 756              		@ sp needed
 757              	.LVL36:
 291:Drivers/STM32F0xx_StdPeriph_Driver/src/stm32f0xx_flash.c **** 
 758              		.loc 1 291 1 view .LVU157
 759 0010 70BD     		pop	{r4, r5, r6, pc}
 760              	.LVL37:
 761              	.L71:
 278:Drivers/STM32F0xx_StdPeriph_Driver/src/stm32f0xx_flash.c ****     FLASH->AR  = Page_Address;
 762              		.loc 1 278 5 is_stmt 1 view .LVU158
 278:Drivers/STM32F0xx_StdPeriph_Driver/src/stm32f0xx_flash.c ****     FLASH->AR  = Page_Address;
 763              		.loc 1 278 15 is_stmt 0 view .LVU159
 764 0012 094D     		ldr	r5, .L72
 765 0014 2B69     		ldr	r3, [r5, #16]
 766 0016 0226     		movs	r6, #2
 767 0018 3343     		orrs	r3, r6
 768 001a 2B61     		str	r3, [r5, #16]
 279:Drivers/STM32F0xx_StdPeriph_Driver/src/stm32f0xx_flash.c ****     FLASH->CR |= FLASH_CR_STRT;
 769              		.loc 1 279 5 is_stmt 1 view .LVU160
 279:Drivers/STM32F0xx_StdPeriph_Driver/src/stm32f0xx_flash.c ****     FLASH->CR |= FLASH_CR_STRT;
 770              		.loc 1 279 16 is_stmt 0 view .LVU161
 771 001c 6C61     		str	r4, [r5, #20]
 280:Drivers/STM32F0xx_StdPeriph_Driver/src/stm32f0xx_flash.c ****     
 772              		.loc 1 280 5 is_stmt 1 view .LVU162
 280:Drivers/STM32F0xx_StdPeriph_Driver/src/stm32f0xx_flash.c ****     
 773              		.loc 1 280 15 is_stmt 0 view .LVU163
 774 001e 2B69     		ldr	r3, [r5, #16]
 775 0020 4022     		movs	r2, #64
 776 0022 1343     		orrs	r3, r2
 777 0024 2B61     		str	r3, [r5, #16]
 283:Drivers/STM32F0xx_StdPeriph_Driver/src/stm32f0xx_flash.c ****     
 778              		.loc 1 283 5 is_stmt 1 view .LVU164
 283:Drivers/STM32F0xx_StdPeriph_Driver/src/stm32f0xx_flash.c ****     
 779              		.loc 1 283 14 is_stmt 0 view .LVU165
 780 0026 AC30     		adds	r0, r0, #172
 781              	.LVL38:
 283:Drivers/STM32F0xx_StdPeriph_Driver/src/stm32f0xx_flash.c ****     
 782              		.loc 1 283 14 view .LVU166
 783 0028 0003     		lsls	r0, r0, #12
 784              	.LVL39:
 283:Drivers/STM32F0xx_StdPeriph_Driver/src/stm32f0xx_flash.c ****     
ARM GAS  /tmp/ccL3hku5.s 			page 35


 785              		.loc 1 283 14 view .LVU167
 786 002a FFF7FEFF 		bl	FLASH_WaitForLastOperation
 787              	.LVL40:
 286:Drivers/STM32F0xx_StdPeriph_Driver/src/stm32f0xx_flash.c ****   }
 788              		.loc 1 286 5 is_stmt 1 view .LVU168
 286:Drivers/STM32F0xx_StdPeriph_Driver/src/stm32f0xx_flash.c ****   }
 789              		.loc 1 286 15 is_stmt 0 view .LVU169
 790 002e 2B69     		ldr	r3, [r5, #16]
 791 0030 B343     		bics	r3, r6
 792 0032 2B61     		str	r3, [r5, #16]
 793 0034 ECE7     		b	.L70
 794              	.L73:
 795 0036 C046     		.align	2
 796              	.L72:
 797 0038 00200240 		.word	1073881088
 798              		.cfi_endproc
 799              	.LFE45:
 801              		.section	.text.FLASH_EraseAllPages,"ax",%progbits
 802              		.align	1
 803              		.global	FLASH_EraseAllPages
 804              		.syntax unified
 805              		.code	16
 806              		.thumb_func
 807              		.fpu softvfp
 809              	FLASH_EraseAllPages:
 810              	.LFB46:
 304:Drivers/STM32F0xx_StdPeriph_Driver/src/stm32f0xx_flash.c ****   FLASH_Status status = FLASH_COMPLETE;
 811              		.loc 1 304 1 is_stmt 1 view -0
 812              		.cfi_startproc
 813              		@ args = 0, pretend = 0, frame = 0
 814              		@ frame_needed = 0, uses_anonymous_args = 0
 815 0000 70B5     		push	{r4, r5, r6, lr}
 816              	.LCFI2:
 817              		.cfi_def_cfa_offset 16
 818              		.cfi_offset 4, -16
 819              		.cfi_offset 5, -12
 820              		.cfi_offset 6, -8
 821              		.cfi_offset 14, -4
 305:Drivers/STM32F0xx_StdPeriph_Driver/src/stm32f0xx_flash.c **** 
 822              		.loc 1 305 3 view .LVU171
 823              	.LVL41:
 308:Drivers/STM32F0xx_StdPeriph_Driver/src/stm32f0xx_flash.c ****   
 824              		.loc 1 308 3 view .LVU172
 308:Drivers/STM32F0xx_StdPeriph_Driver/src/stm32f0xx_flash.c ****   
 825              		.loc 1 308 12 is_stmt 0 view .LVU173
 826 0002 B020     		movs	r0, #176
 827 0004 0003     		lsls	r0, r0, #12
 828 0006 FFF7FEFF 		bl	FLASH_WaitForLastOperation
 829              	.LVL42:
 310:Drivers/STM32F0xx_StdPeriph_Driver/src/stm32f0xx_flash.c ****   {
 830              		.loc 1 310 3 is_stmt 1 view .LVU174
 310:Drivers/STM32F0xx_StdPeriph_Driver/src/stm32f0xx_flash.c ****   {
 831              		.loc 1 310 5 is_stmt 0 view .LVU175
 832 000a 0428     		cmp	r0, #4
 833 000c 00D0     		beq	.L76
 834              	.LVL43:
 835              	.L75:
ARM GAS  /tmp/ccL3hku5.s 			page 36


 324:Drivers/STM32F0xx_StdPeriph_Driver/src/stm32f0xx_flash.c **** }
 836              		.loc 1 324 3 is_stmt 1 view .LVU176
 325:Drivers/STM32F0xx_StdPeriph_Driver/src/stm32f0xx_flash.c **** 
 837              		.loc 1 325 1 is_stmt 0 view .LVU177
 838              		@ sp needed
 839 000e 70BD     		pop	{r4, r5, r6, pc}
 840              	.L76:
 313:Drivers/STM32F0xx_StdPeriph_Driver/src/stm32f0xx_flash.c ****      FLASH->CR |= FLASH_CR_STRT;
 841              		.loc 1 313 6 is_stmt 1 view .LVU178
 313:Drivers/STM32F0xx_StdPeriph_Driver/src/stm32f0xx_flash.c ****      FLASH->CR |= FLASH_CR_STRT;
 842              		.loc 1 313 16 is_stmt 0 view .LVU179
 843 0010 084C     		ldr	r4, .L77
 844 0012 2369     		ldr	r3, [r4, #16]
 845 0014 0425     		movs	r5, #4
 846 0016 2B43     		orrs	r3, r5
 847 0018 2361     		str	r3, [r4, #16]
 314:Drivers/STM32F0xx_StdPeriph_Driver/src/stm32f0xx_flash.c ****     
 848              		.loc 1 314 6 is_stmt 1 view .LVU180
 314:Drivers/STM32F0xx_StdPeriph_Driver/src/stm32f0xx_flash.c ****     
 849              		.loc 1 314 16 is_stmt 0 view .LVU181
 850 001a 2369     		ldr	r3, [r4, #16]
 851 001c 4022     		movs	r2, #64
 852 001e 1343     		orrs	r3, r2
 853 0020 2361     		str	r3, [r4, #16]
 317:Drivers/STM32F0xx_StdPeriph_Driver/src/stm32f0xx_flash.c **** 
 854              		.loc 1 317 5 is_stmt 1 view .LVU182
 317:Drivers/STM32F0xx_StdPeriph_Driver/src/stm32f0xx_flash.c **** 
 855              		.loc 1 317 14 is_stmt 0 view .LVU183
 856 0022 AC30     		adds	r0, r0, #172
 857              	.LVL44:
 317:Drivers/STM32F0xx_StdPeriph_Driver/src/stm32f0xx_flash.c **** 
 858              		.loc 1 317 14 view .LVU184
 859 0024 0003     		lsls	r0, r0, #12
 860              	.LVL45:
 317:Drivers/STM32F0xx_StdPeriph_Driver/src/stm32f0xx_flash.c **** 
 861              		.loc 1 317 14 view .LVU185
 862 0026 FFF7FEFF 		bl	FLASH_WaitForLastOperation
 863              	.LVL46:
 320:Drivers/STM32F0xx_StdPeriph_Driver/src/stm32f0xx_flash.c ****   }
 864              		.loc 1 320 5 is_stmt 1 view .LVU186
 320:Drivers/STM32F0xx_StdPeriph_Driver/src/stm32f0xx_flash.c ****   }
 865              		.loc 1 320 15 is_stmt 0 view .LVU187
 866 002a 2369     		ldr	r3, [r4, #16]
 867 002c AB43     		bics	r3, r5
 868 002e 2361     		str	r3, [r4, #16]
 869 0030 EDE7     		b	.L75
 870              	.L78:
 871 0032 C046     		.align	2
 872              	.L77:
 873 0034 00200240 		.word	1073881088
 874              		.cfi_endproc
 875              	.LFE46:
 877              		.section	.text.FLASH_ProgramWord,"ax",%progbits
 878              		.align	1
 879              		.global	FLASH_ProgramWord
 880              		.syntax unified
 881              		.code	16
ARM GAS  /tmp/ccL3hku5.s 			page 37


 882              		.thumb_func
 883              		.fpu softvfp
 885              	FLASH_ProgramWord:
 886              	.LVL47:
 887              	.LFB47:
 339:Drivers/STM32F0xx_StdPeriph_Driver/src/stm32f0xx_flash.c ****   FLASH_Status status = FLASH_COMPLETE;
 888              		.loc 1 339 1 is_stmt 1 view -0
 889              		.cfi_startproc
 890              		@ args = 0, pretend = 0, frame = 8
 891              		@ frame_needed = 0, uses_anonymous_args = 0
 339:Drivers/STM32F0xx_StdPeriph_Driver/src/stm32f0xx_flash.c ****   FLASH_Status status = FLASH_COMPLETE;
 892              		.loc 1 339 1 is_stmt 0 view .LVU189
 893 0000 30B5     		push	{r4, r5, lr}
 894              	.LCFI3:
 895              		.cfi_def_cfa_offset 12
 896              		.cfi_offset 4, -12
 897              		.cfi_offset 5, -8
 898              		.cfi_offset 14, -4
 899 0002 83B0     		sub	sp, sp, #12
 900              	.LCFI4:
 901              		.cfi_def_cfa_offset 24
 902 0004 0500     		movs	r5, r0
 903 0006 0C00     		movs	r4, r1
 340:Drivers/STM32F0xx_StdPeriph_Driver/src/stm32f0xx_flash.c ****   __IO uint32_t tmp = 0;
 904              		.loc 1 340 3 is_stmt 1 view .LVU190
 905              	.LVL48:
 341:Drivers/STM32F0xx_StdPeriph_Driver/src/stm32f0xx_flash.c **** 
 906              		.loc 1 341 3 view .LVU191
 341:Drivers/STM32F0xx_StdPeriph_Driver/src/stm32f0xx_flash.c **** 
 907              		.loc 1 341 17 is_stmt 0 view .LVU192
 908 0008 0023     		movs	r3, #0
 909 000a 0193     		str	r3, [sp, #4]
 344:Drivers/STM32F0xx_StdPeriph_Driver/src/stm32f0xx_flash.c **** 
 910              		.loc 1 344 3 is_stmt 1 view .LVU193
 347:Drivers/STM32F0xx_StdPeriph_Driver/src/stm32f0xx_flash.c ****   
 911              		.loc 1 347 3 view .LVU194
 347:Drivers/STM32F0xx_StdPeriph_Driver/src/stm32f0xx_flash.c ****   
 912              		.loc 1 347 12 is_stmt 0 view .LVU195
 913 000c B020     		movs	r0, #176
 914              	.LVL49:
 347:Drivers/STM32F0xx_StdPeriph_Driver/src/stm32f0xx_flash.c ****   
 915              		.loc 1 347 12 view .LVU196
 916 000e 0003     		lsls	r0, r0, #12
 917 0010 FFF7FEFF 		bl	FLASH_WaitForLastOperation
 918              	.LVL50:
 349:Drivers/STM32F0xx_StdPeriph_Driver/src/stm32f0xx_flash.c ****   {
 919              		.loc 1 349 3 is_stmt 1 view .LVU197
 349:Drivers/STM32F0xx_StdPeriph_Driver/src/stm32f0xx_flash.c ****   {
 920              		.loc 1 349 5 is_stmt 0 view .LVU198
 921 0014 0428     		cmp	r0, #4
 922 0016 01D0     		beq	.L82
 923              	.LVL51:
 924              	.L80:
 382:Drivers/STM32F0xx_StdPeriph_Driver/src/stm32f0xx_flash.c **** }
 925              		.loc 1 382 3 is_stmt 1 view .LVU199
 383:Drivers/STM32F0xx_StdPeriph_Driver/src/stm32f0xx_flash.c **** 
 926              		.loc 1 383 1 is_stmt 0 view .LVU200
ARM GAS  /tmp/ccL3hku5.s 			page 38


 927 0018 03B0     		add	sp, sp, #12
 928              		@ sp needed
 929 001a 30BD     		pop	{r4, r5, pc}
 930              	.LVL52:
 931              	.L82:
 353:Drivers/STM32F0xx_StdPeriph_Driver/src/stm32f0xx_flash.c ****   
 932              		.loc 1 353 5 is_stmt 1 view .LVU201
 353:Drivers/STM32F0xx_StdPeriph_Driver/src/stm32f0xx_flash.c ****   
 933              		.loc 1 353 15 is_stmt 0 view .LVU202
 934 001c 104A     		ldr	r2, .L84
 935 001e 1369     		ldr	r3, [r2, #16]
 936 0020 0121     		movs	r1, #1
 937 0022 0B43     		orrs	r3, r1
 938 0024 1361     		str	r3, [r2, #16]
 355:Drivers/STM32F0xx_StdPeriph_Driver/src/stm32f0xx_flash.c ****     
 939              		.loc 1 355 5 is_stmt 1 view .LVU203
 355:Drivers/STM32F0xx_StdPeriph_Driver/src/stm32f0xx_flash.c ****     
 940              		.loc 1 355 32 is_stmt 0 view .LVU204
 941 0026 A3B2     		uxth	r3, r4
 355:Drivers/STM32F0xx_StdPeriph_Driver/src/stm32f0xx_flash.c ****     
 942              		.loc 1 355 30 view .LVU205
 943 0028 2B80     		strh	r3, [r5]
 358:Drivers/STM32F0xx_StdPeriph_Driver/src/stm32f0xx_flash.c ****  
 944              		.loc 1 358 5 is_stmt 1 view .LVU206
 358:Drivers/STM32F0xx_StdPeriph_Driver/src/stm32f0xx_flash.c ****  
 945              		.loc 1 358 14 is_stmt 0 view .LVU207
 946 002a AC30     		adds	r0, r0, #172
 947              	.LVL53:
 358:Drivers/STM32F0xx_StdPeriph_Driver/src/stm32f0xx_flash.c ****  
 948              		.loc 1 358 14 view .LVU208
 949 002c 0003     		lsls	r0, r0, #12
 950              	.LVL54:
 358:Drivers/STM32F0xx_StdPeriph_Driver/src/stm32f0xx_flash.c ****  
 951              		.loc 1 358 14 view .LVU209
 952 002e FFF7FEFF 		bl	FLASH_WaitForLastOperation
 953              	.LVL55:
 360:Drivers/STM32F0xx_StdPeriph_Driver/src/stm32f0xx_flash.c ****     {
 954              		.loc 1 360 5 is_stmt 1 view .LVU210
 360:Drivers/STM32F0xx_StdPeriph_Driver/src/stm32f0xx_flash.c ****     {
 955              		.loc 1 360 7 is_stmt 0 view .LVU211
 956 0032 0428     		cmp	r0, #4
 957 0034 05D0     		beq	.L83
 377:Drivers/STM32F0xx_StdPeriph_Driver/src/stm32f0xx_flash.c ****     }
 958              		.loc 1 377 7 is_stmt 1 view .LVU212
 377:Drivers/STM32F0xx_StdPeriph_Driver/src/stm32f0xx_flash.c ****     }
 959              		.loc 1 377 17 is_stmt 0 view .LVU213
 960 0036 0A4A     		ldr	r2, .L84
 961 0038 1369     		ldr	r3, [r2, #16]
 962 003a 0121     		movs	r1, #1
 963 003c 8B43     		bics	r3, r1
 964 003e 1361     		str	r3, [r2, #16]
 965 0040 EAE7     		b	.L80
 966              	.L83:
 364:Drivers/STM32F0xx_StdPeriph_Driver/src/stm32f0xx_flash.c **** 
 967              		.loc 1 364 7 is_stmt 1 view .LVU214
 364:Drivers/STM32F0xx_StdPeriph_Driver/src/stm32f0xx_flash.c **** 
 968              		.loc 1 364 21 is_stmt 0 view .LVU215
ARM GAS  /tmp/ccL3hku5.s 			page 39


 969 0042 0235     		adds	r5, r5, #2
 970              	.LVL56:
 364:Drivers/STM32F0xx_StdPeriph_Driver/src/stm32f0xx_flash.c **** 
 971              		.loc 1 364 11 view .LVU216
 972 0044 0195     		str	r5, [sp, #4]
 366:Drivers/STM32F0xx_StdPeriph_Driver/src/stm32f0xx_flash.c ****     
 973              		.loc 1 366 7 is_stmt 1 view .LVU217
 366:Drivers/STM32F0xx_StdPeriph_Driver/src/stm32f0xx_flash.c ****     
 974              		.loc 1 366 8 is_stmt 0 view .LVU218
 975 0046 019B     		ldr	r3, [sp, #4]
 366:Drivers/STM32F0xx_StdPeriph_Driver/src/stm32f0xx_flash.c ****     
 976              		.loc 1 366 29 view .LVU219
 977 0048 240C     		lsrs	r4, r4, #16
 978              	.LVL57:
 366:Drivers/STM32F0xx_StdPeriph_Driver/src/stm32f0xx_flash.c ****     
 979              		.loc 1 366 29 view .LVU220
 980 004a 1C80     		strh	r4, [r3]
 369:Drivers/STM32F0xx_StdPeriph_Driver/src/stm32f0xx_flash.c ****         
 981              		.loc 1 369 7 is_stmt 1 view .LVU221
 369:Drivers/STM32F0xx_StdPeriph_Driver/src/stm32f0xx_flash.c ****         
 982              		.loc 1 369 16 is_stmt 0 view .LVU222
 983 004c AC30     		adds	r0, r0, #172
 984              	.LVL58:
 369:Drivers/STM32F0xx_StdPeriph_Driver/src/stm32f0xx_flash.c ****         
 985              		.loc 1 369 16 view .LVU223
 986 004e 0003     		lsls	r0, r0, #12
 987              	.LVL59:
 369:Drivers/STM32F0xx_StdPeriph_Driver/src/stm32f0xx_flash.c ****         
 988              		.loc 1 369 16 view .LVU224
 989 0050 FFF7FEFF 		bl	FLASH_WaitForLastOperation
 990              	.LVL60:
 372:Drivers/STM32F0xx_StdPeriph_Driver/src/stm32f0xx_flash.c ****     }
 991              		.loc 1 372 7 is_stmt 1 view .LVU225
 372:Drivers/STM32F0xx_StdPeriph_Driver/src/stm32f0xx_flash.c ****     }
 992              		.loc 1 372 17 is_stmt 0 view .LVU226
 993 0054 024A     		ldr	r2, .L84
 994 0056 1369     		ldr	r3, [r2, #16]
 995 0058 0121     		movs	r1, #1
 996 005a 8B43     		bics	r3, r1
 997 005c 1361     		str	r3, [r2, #16]
 998 005e DBE7     		b	.L80
 999              	.L85:
 1000              		.align	2
 1001              	.L84:
 1002 0060 00200240 		.word	1073881088
 1003              		.cfi_endproc
 1004              	.LFE47:
 1006              		.section	.text.FLASH_ProgramHalfWord,"ax",%progbits
 1007              		.align	1
 1008              		.global	FLASH_ProgramHalfWord
 1009              		.syntax unified
 1010              		.code	16
 1011              		.thumb_func
 1012              		.fpu softvfp
 1014              	FLASH_ProgramHalfWord:
 1015              	.LVL61:
 1016              	.LFB48:
ARM GAS  /tmp/ccL3hku5.s 			page 40


 397:Drivers/STM32F0xx_StdPeriph_Driver/src/stm32f0xx_flash.c ****   FLASH_Status status = FLASH_COMPLETE;
 1017              		.loc 1 397 1 is_stmt 1 view -0
 1018              		.cfi_startproc
 1019              		@ args = 0, pretend = 0, frame = 0
 1020              		@ frame_needed = 0, uses_anonymous_args = 0
 397:Drivers/STM32F0xx_StdPeriph_Driver/src/stm32f0xx_flash.c ****   FLASH_Status status = FLASH_COMPLETE;
 1021              		.loc 1 397 1 is_stmt 0 view .LVU228
 1022 0000 F8B5     		push	{r3, r4, r5, r6, r7, lr}
 1023              	.LCFI5:
 1024              		.cfi_def_cfa_offset 24
 1025              		.cfi_offset 3, -24
 1026              		.cfi_offset 4, -20
 1027              		.cfi_offset 5, -16
 1028              		.cfi_offset 6, -12
 1029              		.cfi_offset 7, -8
 1030              		.cfi_offset 14, -4
 1031 0002 0400     		movs	r4, r0
 1032 0004 0D00     		movs	r5, r1
 398:Drivers/STM32F0xx_StdPeriph_Driver/src/stm32f0xx_flash.c **** 
 1033              		.loc 1 398 3 is_stmt 1 view .LVU229
 1034              	.LVL62:
 401:Drivers/STM32F0xx_StdPeriph_Driver/src/stm32f0xx_flash.c **** 
 1035              		.loc 1 401 3 view .LVU230
 404:Drivers/STM32F0xx_StdPeriph_Driver/src/stm32f0xx_flash.c ****   
 1036              		.loc 1 404 3 view .LVU231
 404:Drivers/STM32F0xx_StdPeriph_Driver/src/stm32f0xx_flash.c ****   
 1037              		.loc 1 404 12 is_stmt 0 view .LVU232
 1038 0006 B020     		movs	r0, #176
 1039              	.LVL63:
 404:Drivers/STM32F0xx_StdPeriph_Driver/src/stm32f0xx_flash.c ****   
 1040              		.loc 1 404 12 view .LVU233
 1041 0008 0003     		lsls	r0, r0, #12
 1042 000a FFF7FEFF 		bl	FLASH_WaitForLastOperation
 1043              	.LVL64:
 406:Drivers/STM32F0xx_StdPeriph_Driver/src/stm32f0xx_flash.c ****   {
 1044              		.loc 1 406 3 is_stmt 1 view .LVU234
 406:Drivers/STM32F0xx_StdPeriph_Driver/src/stm32f0xx_flash.c ****   {
 1045              		.loc 1 406 5 is_stmt 0 view .LVU235
 1046 000e 0428     		cmp	r0, #4
 1047 0010 00D0     		beq	.L88
 1048              	.LVL65:
 1049              	.L87:
 421:Drivers/STM32F0xx_StdPeriph_Driver/src/stm32f0xx_flash.c **** }
 1050              		.loc 1 421 3 is_stmt 1 view .LVU236
 422:Drivers/STM32F0xx_StdPeriph_Driver/src/stm32f0xx_flash.c **** 
 1051              		.loc 1 422 1 is_stmt 0 view .LVU237
 1052              		@ sp needed
 1053              	.LVL66:
 422:Drivers/STM32F0xx_StdPeriph_Driver/src/stm32f0xx_flash.c **** 
 1054              		.loc 1 422 1 view .LVU238
 1055 0012 F8BD     		pop	{r3, r4, r5, r6, r7, pc}
 1056              	.LVL67:
 1057              	.L88:
 409:Drivers/STM32F0xx_StdPeriph_Driver/src/stm32f0xx_flash.c ****   
 1058              		.loc 1 409 5 is_stmt 1 view .LVU239
 409:Drivers/STM32F0xx_StdPeriph_Driver/src/stm32f0xx_flash.c ****   
 1059              		.loc 1 409 15 is_stmt 0 view .LVU240
ARM GAS  /tmp/ccL3hku5.s 			page 41


 1060 0014 064E     		ldr	r6, .L89
 1061 0016 3369     		ldr	r3, [r6, #16]
 1062 0018 0127     		movs	r7, #1
 1063 001a 3B43     		orrs	r3, r7
 1064 001c 3361     		str	r3, [r6, #16]
 411:Drivers/STM32F0xx_StdPeriph_Driver/src/stm32f0xx_flash.c **** 
 1065              		.loc 1 411 5 is_stmt 1 view .LVU241
 411:Drivers/STM32F0xx_StdPeriph_Driver/src/stm32f0xx_flash.c **** 
 1066              		.loc 1 411 30 is_stmt 0 view .LVU242
 1067 001e 2580     		strh	r5, [r4]
 414:Drivers/STM32F0xx_StdPeriph_Driver/src/stm32f0xx_flash.c ****     
 1068              		.loc 1 414 5 is_stmt 1 view .LVU243
 414:Drivers/STM32F0xx_StdPeriph_Driver/src/stm32f0xx_flash.c ****     
 1069              		.loc 1 414 14 is_stmt 0 view .LVU244
 1070 0020 AC30     		adds	r0, r0, #172
 1071              	.LVL68:
 414:Drivers/STM32F0xx_StdPeriph_Driver/src/stm32f0xx_flash.c ****     
 1072              		.loc 1 414 14 view .LVU245
 1073 0022 0003     		lsls	r0, r0, #12
 1074              	.LVL69:
 414:Drivers/STM32F0xx_StdPeriph_Driver/src/stm32f0xx_flash.c ****     
 1075              		.loc 1 414 14 view .LVU246
 1076 0024 FFF7FEFF 		bl	FLASH_WaitForLastOperation
 1077              	.LVL70:
 417:Drivers/STM32F0xx_StdPeriph_Driver/src/stm32f0xx_flash.c ****   } 
 1078              		.loc 1 417 5 is_stmt 1 view .LVU247
 417:Drivers/STM32F0xx_StdPeriph_Driver/src/stm32f0xx_flash.c ****   } 
 1079              		.loc 1 417 15 is_stmt 0 view .LVU248
 1080 0028 3369     		ldr	r3, [r6, #16]
 1081 002a BB43     		bics	r3, r7
 1082 002c 3361     		str	r3, [r6, #16]
 1083 002e F0E7     		b	.L87
 1084              	.L90:
 1085              		.align	2
 1086              	.L89:
 1087 0030 00200240 		.word	1073881088
 1088              		.cfi_endproc
 1089              	.LFE48:
 1091              		.section	.text.FLASH_OB_Erase,"ax",%progbits
 1092              		.align	1
 1093              		.global	FLASH_OB_Erase
 1094              		.syntax unified
 1095              		.code	16
 1096              		.thumb_func
 1097              		.fpu softvfp
 1099              	FLASH_OB_Erase:
 1100              	.LFB52:
 530:Drivers/STM32F0xx_StdPeriph_Driver/src/stm32f0xx_flash.c ****   uint16_t rdptmp = OB_RDP_Level_0;
 1101              		.loc 1 530 1 is_stmt 1 view -0
 1102              		.cfi_startproc
 1103              		@ args = 0, pretend = 0, frame = 0
 1104              		@ frame_needed = 0, uses_anonymous_args = 0
 1105 0000 10B5     		push	{r4, lr}
 1106              	.LCFI6:
 1107              		.cfi_def_cfa_offset 8
 1108              		.cfi_offset 4, -8
 1109              		.cfi_offset 14, -4
ARM GAS  /tmp/ccL3hku5.s 			page 42


 531:Drivers/STM32F0xx_StdPeriph_Driver/src/stm32f0xx_flash.c **** 
 1110              		.loc 1 531 3 view .LVU250
 1111              	.LVL71:
 533:Drivers/STM32F0xx_StdPeriph_Driver/src/stm32f0xx_flash.c **** 
 1112              		.loc 1 533 3 view .LVU251
 536:Drivers/STM32F0xx_StdPeriph_Driver/src/stm32f0xx_flash.c ****   {
 1113              		.loc 1 536 3 view .LVU252
 536:Drivers/STM32F0xx_StdPeriph_Driver/src/stm32f0xx_flash.c ****   {
 1114              		.loc 1 536 6 is_stmt 0 view .LVU253
 1115 0002 FFF7FEFF 		bl	FLASH_OB_GetRDP
 1116              	.LVL72:
 536:Drivers/STM32F0xx_StdPeriph_Driver/src/stm32f0xx_flash.c ****   {
 1117              		.loc 1 536 5 view .LVU254
 1118 0006 0028     		cmp	r0, #0
 1119 0008 07D1     		bne	.L95
 531:Drivers/STM32F0xx_StdPeriph_Driver/src/stm32f0xx_flash.c **** 
 1120              		.loc 1 531 12 view .LVU255
 1121 000a AA24     		movs	r4, #170
 1122              	.L92:
 1123              	.LVL73:
 542:Drivers/STM32F0xx_StdPeriph_Driver/src/stm32f0xx_flash.c **** 
 1124              		.loc 1 542 3 is_stmt 1 view .LVU256
 542:Drivers/STM32F0xx_StdPeriph_Driver/src/stm32f0xx_flash.c **** 
 1125              		.loc 1 542 12 is_stmt 0 view .LVU257
 1126 000c B020     		movs	r0, #176
 1127 000e 0003     		lsls	r0, r0, #12
 1128 0010 FFF7FEFF 		bl	FLASH_WaitForLastOperation
 1129              	.LVL74:
 544:Drivers/STM32F0xx_StdPeriph_Driver/src/stm32f0xx_flash.c ****   {   
 1130              		.loc 1 544 3 is_stmt 1 view .LVU258
 544:Drivers/STM32F0xx_StdPeriph_Driver/src/stm32f0xx_flash.c ****   {   
 1131              		.loc 1 544 5 is_stmt 0 view .LVU259
 1132 0014 0428     		cmp	r0, #4
 1133 0016 02D0     		beq	.L96
 1134              	.LVL75:
 1135              	.L93:
 583:Drivers/STM32F0xx_StdPeriph_Driver/src/stm32f0xx_flash.c **** }
 1136              		.loc 1 583 3 is_stmt 1 view .LVU260
 584:Drivers/STM32F0xx_StdPeriph_Driver/src/stm32f0xx_flash.c **** 
 1137              		.loc 1 584 1 is_stmt 0 view .LVU261
 1138              		@ sp needed
 1139              	.LVL76:
 584:Drivers/STM32F0xx_StdPeriph_Driver/src/stm32f0xx_flash.c **** 
 1140              		.loc 1 584 1 view .LVU262
 1141 0018 10BD     		pop	{r4, pc}
 1142              	.LVL77:
 1143              	.L95:
 538:Drivers/STM32F0xx_StdPeriph_Driver/src/stm32f0xx_flash.c ****   }
 1144              		.loc 1 538 12 view .LVU263
 1145 001a 0024     		movs	r4, #0
 1146 001c F6E7     		b	.L92
 1147              	.LVL78:
 1148              	.L96:
 547:Drivers/STM32F0xx_StdPeriph_Driver/src/stm32f0xx_flash.c ****     FLASH->CR |= FLASH_CR_STRT;
 1149              		.loc 1 547 5 is_stmt 1 view .LVU264
 547:Drivers/STM32F0xx_StdPeriph_Driver/src/stm32f0xx_flash.c ****     FLASH->CR |= FLASH_CR_STRT;
 1150              		.loc 1 547 15 is_stmt 0 view .LVU265
ARM GAS  /tmp/ccL3hku5.s 			page 43


 1151 001e 174B     		ldr	r3, .L98
 1152 0020 1A69     		ldr	r2, [r3, #16]
 1153 0022 2021     		movs	r1, #32
 1154 0024 0A43     		orrs	r2, r1
 1155 0026 1A61     		str	r2, [r3, #16]
 548:Drivers/STM32F0xx_StdPeriph_Driver/src/stm32f0xx_flash.c **** 
 1156              		.loc 1 548 5 is_stmt 1 view .LVU266
 548:Drivers/STM32F0xx_StdPeriph_Driver/src/stm32f0xx_flash.c **** 
 1157              		.loc 1 548 15 is_stmt 0 view .LVU267
 1158 0028 1A69     		ldr	r2, [r3, #16]
 1159 002a 2031     		adds	r1, r1, #32
 1160 002c 0A43     		orrs	r2, r1
 1161 002e 1A61     		str	r2, [r3, #16]
 551:Drivers/STM32F0xx_StdPeriph_Driver/src/stm32f0xx_flash.c ****     
 1162              		.loc 1 551 5 is_stmt 1 view .LVU268
 551:Drivers/STM32F0xx_StdPeriph_Driver/src/stm32f0xx_flash.c ****     
 1163              		.loc 1 551 14 is_stmt 0 view .LVU269
 1164 0030 AC30     		adds	r0, r0, #172
 1165              	.LVL79:
 551:Drivers/STM32F0xx_StdPeriph_Driver/src/stm32f0xx_flash.c ****     
 1166              		.loc 1 551 14 view .LVU270
 1167 0032 0003     		lsls	r0, r0, #12
 1168              	.LVL80:
 551:Drivers/STM32F0xx_StdPeriph_Driver/src/stm32f0xx_flash.c ****     
 1169              		.loc 1 551 14 view .LVU271
 1170 0034 FFF7FEFF 		bl	FLASH_WaitForLastOperation
 1171              	.LVL81:
 553:Drivers/STM32F0xx_StdPeriph_Driver/src/stm32f0xx_flash.c ****     {
 1172              		.loc 1 553 5 is_stmt 1 view .LVU272
 553:Drivers/STM32F0xx_StdPeriph_Driver/src/stm32f0xx_flash.c ****     {
 1173              		.loc 1 553 7 is_stmt 0 view .LVU273
 1174 0038 0428     		cmp	r0, #4
 1175 003a 07D0     		beq	.L97
 575:Drivers/STM32F0xx_StdPeriph_Driver/src/stm32f0xx_flash.c ****       {
 1176              		.loc 1 575 7 is_stmt 1 view .LVU274
 575:Drivers/STM32F0xx_StdPeriph_Driver/src/stm32f0xx_flash.c ****       {
 1177              		.loc 1 575 10 is_stmt 0 view .LVU275
 1178 003c 0528     		cmp	r0, #5
 1179 003e EBD0     		beq	.L93
 578:Drivers/STM32F0xx_StdPeriph_Driver/src/stm32f0xx_flash.c ****       }
 1180              		.loc 1 578 9 is_stmt 1 view .LVU276
 578:Drivers/STM32F0xx_StdPeriph_Driver/src/stm32f0xx_flash.c ****       }
 1181              		.loc 1 578 19 is_stmt 0 view .LVU277
 1182 0040 0E4A     		ldr	r2, .L98
 1183 0042 1369     		ldr	r3, [r2, #16]
 1184 0044 1021     		movs	r1, #16
 1185 0046 8B43     		bics	r3, r1
 1186 0048 1361     		str	r3, [r2, #16]
 1187 004a E5E7     		b	.L93
 1188              	.L97:
 556:Drivers/STM32F0xx_StdPeriph_Driver/src/stm32f0xx_flash.c ****        
 1189              		.loc 1 556 7 is_stmt 1 view .LVU278
 556:Drivers/STM32F0xx_StdPeriph_Driver/src/stm32f0xx_flash.c ****        
 1190              		.loc 1 556 17 is_stmt 0 view .LVU279
 1191 004c 0B4B     		ldr	r3, .L98
 1192 004e 1A69     		ldr	r2, [r3, #16]
 1193 0050 2021     		movs	r1, #32
ARM GAS  /tmp/ccL3hku5.s 			page 44


 1194 0052 8A43     		bics	r2, r1
 1195 0054 1A61     		str	r2, [r3, #16]
 559:Drivers/STM32F0xx_StdPeriph_Driver/src/stm32f0xx_flash.c **** 
 1196              		.loc 1 559 7 is_stmt 1 view .LVU280
 559:Drivers/STM32F0xx_StdPeriph_Driver/src/stm32f0xx_flash.c **** 
 1197              		.loc 1 559 17 is_stmt 0 view .LVU281
 1198 0056 1A69     		ldr	r2, [r3, #16]
 1199 0058 1039     		subs	r1, r1, #16
 1200 005a 0A43     		orrs	r2, r1
 1201 005c 1A61     		str	r2, [r3, #16]
 562:Drivers/STM32F0xx_StdPeriph_Driver/src/stm32f0xx_flash.c **** 
 1202              		.loc 1 562 7 is_stmt 1 view .LVU282
 562:Drivers/STM32F0xx_StdPeriph_Driver/src/stm32f0xx_flash.c **** 
 1203              		.loc 1 562 15 is_stmt 0 view .LVU283
 1204 005e 084B     		ldr	r3, .L98+4
 1205 0060 1C80     		strh	r4, [r3]
 565:Drivers/STM32F0xx_StdPeriph_Driver/src/stm32f0xx_flash.c ****  
 1206              		.loc 1 565 7 is_stmt 1 view .LVU284
 565:Drivers/STM32F0xx_StdPeriph_Driver/src/stm32f0xx_flash.c ****  
 1207              		.loc 1 565 16 is_stmt 0 view .LVU285
 1208 0062 AC30     		adds	r0, r0, #172
 1209              	.LVL82:
 565:Drivers/STM32F0xx_StdPeriph_Driver/src/stm32f0xx_flash.c ****  
 1210              		.loc 1 565 16 view .LVU286
 1211 0064 0003     		lsls	r0, r0, #12
 1212              	.LVL83:
 565:Drivers/STM32F0xx_StdPeriph_Driver/src/stm32f0xx_flash.c ****  
 1213              		.loc 1 565 16 view .LVU287
 1214 0066 FFF7FEFF 		bl	FLASH_WaitForLastOperation
 1215              	.LVL84:
 567:Drivers/STM32F0xx_StdPeriph_Driver/src/stm32f0xx_flash.c ****       {
 1216              		.loc 1 567 7 is_stmt 1 view .LVU288
 567:Drivers/STM32F0xx_StdPeriph_Driver/src/stm32f0xx_flash.c ****       {
 1217              		.loc 1 567 9 is_stmt 0 view .LVU289
 1218 006a 0528     		cmp	r0, #5
 1219 006c D4D0     		beq	.L93
 570:Drivers/STM32F0xx_StdPeriph_Driver/src/stm32f0xx_flash.c ****       }
 1220              		.loc 1 570 9 is_stmt 1 view .LVU290
 570:Drivers/STM32F0xx_StdPeriph_Driver/src/stm32f0xx_flash.c ****       }
 1221              		.loc 1 570 19 is_stmt 0 view .LVU291
 1222 006e 034A     		ldr	r2, .L98
 1223 0070 1369     		ldr	r3, [r2, #16]
 1224 0072 1021     		movs	r1, #16
 1225 0074 8B43     		bics	r3, r1
 1226 0076 1361     		str	r3, [r2, #16]
 1227 0078 CEE7     		b	.L93
 1228              	.L99:
 1229 007a C046     		.align	2
 1230              	.L98:
 1231 007c 00200240 		.word	1073881088
 1232 0080 00F8FF1F 		.word	536868864
 1233              		.cfi_endproc
 1234              	.LFE52:
 1236              		.section	.text.FLASH_OB_EnableWRP,"ax",%progbits
 1237              		.align	1
 1238              		.global	FLASH_OB_EnableWRP
 1239              		.syntax unified
ARM GAS  /tmp/ccL3hku5.s 			page 45


 1240              		.code	16
 1241              		.thumb_func
 1242              		.fpu softvfp
 1244              	FLASH_OB_EnableWRP:
 1245              	.LVL85:
 1246              	.LFB53:
 600:Drivers/STM32F0xx_StdPeriph_Driver/src/stm32f0xx_flash.c ****   uint16_t WRP0_Data = 0xFFFF, WRP1_Data = 0xFFFF;
 1247              		.loc 1 600 1 is_stmt 1 view -0
 1248              		.cfi_startproc
 1249              		@ args = 0, pretend = 0, frame = 0
 1250              		@ frame_needed = 0, uses_anonymous_args = 0
 600:Drivers/STM32F0xx_StdPeriph_Driver/src/stm32f0xx_flash.c ****   uint16_t WRP0_Data = 0xFFFF, WRP1_Data = 0xFFFF;
 1251              		.loc 1 600 1 is_stmt 0 view .LVU293
 1252 0000 70B5     		push	{r4, r5, r6, lr}
 1253              	.LCFI7:
 1254              		.cfi_def_cfa_offset 16
 1255              		.cfi_offset 4, -16
 1256              		.cfi_offset 5, -12
 1257              		.cfi_offset 6, -8
 1258              		.cfi_offset 14, -4
 601:Drivers/STM32F0xx_StdPeriph_Driver/src/stm32f0xx_flash.c **** 
 1259              		.loc 1 601 3 is_stmt 1 view .LVU294
 1260              	.LVL86:
 603:Drivers/STM32F0xx_StdPeriph_Driver/src/stm32f0xx_flash.c **** 
 1261              		.loc 1 603 3 view .LVU295
 606:Drivers/STM32F0xx_StdPeriph_Driver/src/stm32f0xx_flash.c **** 
 1262              		.loc 1 606 3 view .LVU296
 608:Drivers/STM32F0xx_StdPeriph_Driver/src/stm32f0xx_flash.c ****   WRP0_Data = (uint16_t)(OB_WRP & OB_WRP0_WRP0);
 1263              		.loc 1 608 3 view .LVU297
 608:Drivers/STM32F0xx_StdPeriph_Driver/src/stm32f0xx_flash.c ****   WRP0_Data = (uint16_t)(OB_WRP & OB_WRP0_WRP0);
 1264              		.loc 1 608 10 is_stmt 0 view .LVU298
 1265 0002 C343     		mvns	r3, r0
 1266              	.LVL87:
 609:Drivers/STM32F0xx_StdPeriph_Driver/src/stm32f0xx_flash.c ****   WRP1_Data = (uint16_t)((OB_WRP & OB_WRP0_nWRP0) >> 8);
 1267              		.loc 1 609 3 is_stmt 1 view .LVU299
 609:Drivers/STM32F0xx_StdPeriph_Driver/src/stm32f0xx_flash.c ****   WRP1_Data = (uint16_t)((OB_WRP & OB_WRP0_nWRP0) >> 8);
 1268              		.loc 1 609 13 is_stmt 0 view .LVU300
 1269 0004 FF24     		movs	r4, #255
 1270 0006 2500     		movs	r5, r4
 1271 0008 8543     		bics	r5, r0
 1272              	.LVL88:
 610:Drivers/STM32F0xx_StdPeriph_Driver/src/stm32f0xx_flash.c **** 
 1273              		.loc 1 610 3 is_stmt 1 view .LVU301
 610:Drivers/STM32F0xx_StdPeriph_Driver/src/stm32f0xx_flash.c **** 
 1274              		.loc 1 610 51 is_stmt 0 view .LVU302
 1275 000a 1B0A     		lsrs	r3, r3, #8
 1276              	.LVL89:
 610:Drivers/STM32F0xx_StdPeriph_Driver/src/stm32f0xx_flash.c **** 
 1277              		.loc 1 610 13 view .LVU303
 1278 000c 1C40     		ands	r4, r3
 1279              	.LVL90:
 613:Drivers/STM32F0xx_StdPeriph_Driver/src/stm32f0xx_flash.c **** 
 1280              		.loc 1 613 3 is_stmt 1 view .LVU304
 613:Drivers/STM32F0xx_StdPeriph_Driver/src/stm32f0xx_flash.c **** 
 1281              		.loc 1 613 12 is_stmt 0 view .LVU305
 1282 000e B020     		movs	r0, #176
 1283              	.LVL91:
ARM GAS  /tmp/ccL3hku5.s 			page 46


 613:Drivers/STM32F0xx_StdPeriph_Driver/src/stm32f0xx_flash.c **** 
 1284              		.loc 1 613 12 view .LVU306
 1285 0010 0003     		lsls	r0, r0, #12
 1286 0012 FFF7FEFF 		bl	FLASH_WaitForLastOperation
 1287              	.LVL92:
 615:Drivers/STM32F0xx_StdPeriph_Driver/src/stm32f0xx_flash.c ****   {
 1288              		.loc 1 615 3 is_stmt 1 view .LVU307
 615:Drivers/STM32F0xx_StdPeriph_Driver/src/stm32f0xx_flash.c ****   {
 1289              		.loc 1 615 5 is_stmt 0 view .LVU308
 1290 0016 0428     		cmp	r0, #4
 1291 0018 00D0     		beq	.L104
 1292              	.LVL93:
 1293              	.L101:
 641:Drivers/STM32F0xx_StdPeriph_Driver/src/stm32f0xx_flash.c **** }
 1294              		.loc 1 641 3 is_stmt 1 view .LVU309
 642:Drivers/STM32F0xx_StdPeriph_Driver/src/stm32f0xx_flash.c **** 
 1295              		.loc 1 642 1 is_stmt 0 view .LVU310
 1296              		@ sp needed
 1297              	.LVL94:
 1298              	.LVL95:
 642:Drivers/STM32F0xx_StdPeriph_Driver/src/stm32f0xx_flash.c **** 
 1299              		.loc 1 642 1 view .LVU311
 1300 001a 70BD     		pop	{r4, r5, r6, pc}
 1301              	.LVL96:
 1302              	.L104:
 617:Drivers/STM32F0xx_StdPeriph_Driver/src/stm32f0xx_flash.c **** 
 1303              		.loc 1 617 5 is_stmt 1 view .LVU312
 617:Drivers/STM32F0xx_StdPeriph_Driver/src/stm32f0xx_flash.c **** 
 1304              		.loc 1 617 15 is_stmt 0 view .LVU313
 1305 001c 104A     		ldr	r2, .L107
 1306 001e 1369     		ldr	r3, [r2, #16]
 1307 0020 1021     		movs	r1, #16
 1308 0022 0B43     		orrs	r3, r1
 1309 0024 1361     		str	r3, [r2, #16]
 619:Drivers/STM32F0xx_StdPeriph_Driver/src/stm32f0xx_flash.c ****     {
 1310              		.loc 1 619 5 is_stmt 1 view .LVU314
 619:Drivers/STM32F0xx_StdPeriph_Driver/src/stm32f0xx_flash.c ****     {
 1311              		.loc 1 619 7 is_stmt 0 view .LVU315
 1312 0026 FF2D     		cmp	r5, #255
 1313 0028 09D1     		bne	.L105
 1314              	.LVL97:
 1315              	.L102:
 626:Drivers/STM32F0xx_StdPeriph_Driver/src/stm32f0xx_flash.c ****     {
 1316              		.loc 1 626 5 is_stmt 1 view .LVU316
 626:Drivers/STM32F0xx_StdPeriph_Driver/src/stm32f0xx_flash.c ****     {
 1317              		.loc 1 626 7 is_stmt 0 view .LVU317
 1318 002a 0428     		cmp	r0, #4
 1319 002c 0ED0     		beq	.L106
 1320              	.LVL98:
 1321              	.L103:
 634:Drivers/STM32F0xx_StdPeriph_Driver/src/stm32f0xx_flash.c ****     {
 1322              		.loc 1 634 5 is_stmt 1 view .LVU318
 634:Drivers/STM32F0xx_StdPeriph_Driver/src/stm32f0xx_flash.c ****     {
 1323              		.loc 1 634 7 is_stmt 0 view .LVU319
 1324 002e 0528     		cmp	r0, #5
 1325 0030 F3D0     		beq	.L101
 637:Drivers/STM32F0xx_StdPeriph_Driver/src/stm32f0xx_flash.c ****     }
ARM GAS  /tmp/ccL3hku5.s 			page 47


 1326              		.loc 1 637 7 is_stmt 1 view .LVU320
 637:Drivers/STM32F0xx_StdPeriph_Driver/src/stm32f0xx_flash.c ****     }
 1327              		.loc 1 637 17 is_stmt 0 view .LVU321
 1328 0032 0B4A     		ldr	r2, .L107
 1329 0034 1369     		ldr	r3, [r2, #16]
 1330 0036 1021     		movs	r1, #16
 1331 0038 8B43     		bics	r3, r1
 1332 003a 1361     		str	r3, [r2, #16]
 1333 003c EDE7     		b	.L101
 1334              	.L105:
 621:Drivers/STM32F0xx_StdPeriph_Driver/src/stm32f0xx_flash.c ****       
 1335              		.loc 1 621 7 is_stmt 1 view .LVU322
 621:Drivers/STM32F0xx_StdPeriph_Driver/src/stm32f0xx_flash.c ****       
 1336              		.loc 1 621 16 is_stmt 0 view .LVU323
 1337 003e 094B     		ldr	r3, .L107+4
 1338 0040 1D81     		strh	r5, [r3, #8]
 624:Drivers/STM32F0xx_StdPeriph_Driver/src/stm32f0xx_flash.c ****     }
 1339              		.loc 1 624 7 is_stmt 1 view .LVU324
 624:Drivers/STM32F0xx_StdPeriph_Driver/src/stm32f0xx_flash.c ****     }
 1340              		.loc 1 624 16 is_stmt 0 view .LVU325
 1341 0042 AC30     		adds	r0, r0, #172
 1342              	.LVL99:
 624:Drivers/STM32F0xx_StdPeriph_Driver/src/stm32f0xx_flash.c ****     }
 1343              		.loc 1 624 16 view .LVU326
 1344 0044 0003     		lsls	r0, r0, #12
 1345              	.LVL100:
 624:Drivers/STM32F0xx_StdPeriph_Driver/src/stm32f0xx_flash.c ****     }
 1346              		.loc 1 624 16 view .LVU327
 1347 0046 FFF7FEFF 		bl	FLASH_WaitForLastOperation
 1348              	.LVL101:
 624:Drivers/STM32F0xx_StdPeriph_Driver/src/stm32f0xx_flash.c ****     }
 1349              		.loc 1 624 16 view .LVU328
 1350 004a EEE7     		b	.L102
 1351              	.L106:
 626:Drivers/STM32F0xx_StdPeriph_Driver/src/stm32f0xx_flash.c ****     {
 1352              		.loc 1 626 35 discriminator 1 view .LVU329
 1353 004c FF2C     		cmp	r4, #255
 1354 004e EED0     		beq	.L103
 628:Drivers/STM32F0xx_StdPeriph_Driver/src/stm32f0xx_flash.c ****       
 1355              		.loc 1 628 7 is_stmt 1 view .LVU330
 628:Drivers/STM32F0xx_StdPeriph_Driver/src/stm32f0xx_flash.c ****       
 1356              		.loc 1 628 16 is_stmt 0 view .LVU331
 1357 0050 044B     		ldr	r3, .L107+4
 1358 0052 5C81     		strh	r4, [r3, #10]
 631:Drivers/STM32F0xx_StdPeriph_Driver/src/stm32f0xx_flash.c ****     }
 1359              		.loc 1 631 7 is_stmt 1 view .LVU332
 631:Drivers/STM32F0xx_StdPeriph_Driver/src/stm32f0xx_flash.c ****     }
 1360              		.loc 1 631 16 is_stmt 0 view .LVU333
 1361 0054 AC30     		adds	r0, r0, #172
 1362              	.LVL102:
 631:Drivers/STM32F0xx_StdPeriph_Driver/src/stm32f0xx_flash.c ****     }
 1363              		.loc 1 631 16 view .LVU334
 1364 0056 0003     		lsls	r0, r0, #12
 1365 0058 FFF7FEFF 		bl	FLASH_WaitForLastOperation
 1366              	.LVL103:
 631:Drivers/STM32F0xx_StdPeriph_Driver/src/stm32f0xx_flash.c ****     }
 1367              		.loc 1 631 16 view .LVU335
ARM GAS  /tmp/ccL3hku5.s 			page 48


 1368 005c E7E7     		b	.L103
 1369              	.L108:
 1370 005e C046     		.align	2
 1371              	.L107:
 1372 0060 00200240 		.word	1073881088
 1373 0064 00F8FF1F 		.word	536868864
 1374              		.cfi_endproc
 1375              	.LFE53:
 1377              		.section	.text.FLASH_OB_RDPConfig,"ax",%progbits
 1378              		.align	1
 1379              		.global	FLASH_OB_RDPConfig
 1380              		.syntax unified
 1381              		.code	16
 1382              		.thumb_func
 1383              		.fpu softvfp
 1385              	FLASH_OB_RDPConfig:
 1386              	.LVL104:
 1387              	.LFB54:
 659:Drivers/STM32F0xx_StdPeriph_Driver/src/stm32f0xx_flash.c ****   FLASH_Status status = FLASH_COMPLETE;
 1388              		.loc 1 659 1 is_stmt 1 view -0
 1389              		.cfi_startproc
 1390              		@ args = 0, pretend = 0, frame = 0
 1391              		@ frame_needed = 0, uses_anonymous_args = 0
 659:Drivers/STM32F0xx_StdPeriph_Driver/src/stm32f0xx_flash.c ****   FLASH_Status status = FLASH_COMPLETE;
 1392              		.loc 1 659 1 is_stmt 0 view .LVU337
 1393 0000 10B5     		push	{r4, lr}
 1394              	.LCFI8:
 1395              		.cfi_def_cfa_offset 8
 1396              		.cfi_offset 4, -8
 1397              		.cfi_offset 14, -4
 1398 0002 0400     		movs	r4, r0
 660:Drivers/STM32F0xx_StdPeriph_Driver/src/stm32f0xx_flash.c ****   
 1399              		.loc 1 660 3 is_stmt 1 view .LVU338
 1400              	.LVL105:
 663:Drivers/STM32F0xx_StdPeriph_Driver/src/stm32f0xx_flash.c ****   status = FLASH_WaitForLastOperation(FLASH_ER_PRG_TIMEOUT);
 1401              		.loc 1 663 3 view .LVU339
 664:Drivers/STM32F0xx_StdPeriph_Driver/src/stm32f0xx_flash.c ****   
 1402              		.loc 1 664 3 view .LVU340
 664:Drivers/STM32F0xx_StdPeriph_Driver/src/stm32f0xx_flash.c ****   
 1403              		.loc 1 664 12 is_stmt 0 view .LVU341
 1404 0004 B020     		movs	r0, #176
 1405              	.LVL106:
 664:Drivers/STM32F0xx_StdPeriph_Driver/src/stm32f0xx_flash.c ****   
 1406              		.loc 1 664 12 view .LVU342
 1407 0006 0003     		lsls	r0, r0, #12
 1408 0008 FFF7FEFF 		bl	FLASH_WaitForLastOperation
 1409              	.LVL107:
 666:Drivers/STM32F0xx_StdPeriph_Driver/src/stm32f0xx_flash.c ****   {
 1410              		.loc 1 666 3 is_stmt 1 view .LVU343
 666:Drivers/STM32F0xx_StdPeriph_Driver/src/stm32f0xx_flash.c ****   {
 1411              		.loc 1 666 5 is_stmt 0 view .LVU344
 1412 000c 0428     		cmp	r0, #4
 1413 000e 00D0     		beq	.L112
 1414              	.LVL108:
 1415              	.L110:
 703:Drivers/STM32F0xx_StdPeriph_Driver/src/stm32f0xx_flash.c **** }
 1416              		.loc 1 703 3 is_stmt 1 view .LVU345
ARM GAS  /tmp/ccL3hku5.s 			page 49


 704:Drivers/STM32F0xx_StdPeriph_Driver/src/stm32f0xx_flash.c **** 
 1417              		.loc 1 704 1 is_stmt 0 view .LVU346
 1418              		@ sp needed
 1419 0010 10BD     		pop	{r4, pc}
 1420              	.L112:
 668:Drivers/STM32F0xx_StdPeriph_Driver/src/stm32f0xx_flash.c ****     FLASH->CR |= FLASH_CR_STRT;
 1421              		.loc 1 668 5 is_stmt 1 view .LVU347
 668:Drivers/STM32F0xx_StdPeriph_Driver/src/stm32f0xx_flash.c ****     FLASH->CR |= FLASH_CR_STRT;
 1422              		.loc 1 668 15 is_stmt 0 view .LVU348
 1423 0012 174B     		ldr	r3, .L114
 1424 0014 1A69     		ldr	r2, [r3, #16]
 1425 0016 2021     		movs	r1, #32
 1426 0018 0A43     		orrs	r2, r1
 1427 001a 1A61     		str	r2, [r3, #16]
 669:Drivers/STM32F0xx_StdPeriph_Driver/src/stm32f0xx_flash.c ****     
 1428              		.loc 1 669 5 is_stmt 1 view .LVU349
 669:Drivers/STM32F0xx_StdPeriph_Driver/src/stm32f0xx_flash.c ****     
 1429              		.loc 1 669 15 is_stmt 0 view .LVU350
 1430 001c 1A69     		ldr	r2, [r3, #16]
 1431 001e 2031     		adds	r1, r1, #32
 1432 0020 0A43     		orrs	r2, r1
 1433 0022 1A61     		str	r2, [r3, #16]
 672:Drivers/STM32F0xx_StdPeriph_Driver/src/stm32f0xx_flash.c ****     
 1434              		.loc 1 672 5 is_stmt 1 view .LVU351
 672:Drivers/STM32F0xx_StdPeriph_Driver/src/stm32f0xx_flash.c ****     
 1435              		.loc 1 672 14 is_stmt 0 view .LVU352
 1436 0024 AC30     		adds	r0, r0, #172
 1437              	.LVL109:
 672:Drivers/STM32F0xx_StdPeriph_Driver/src/stm32f0xx_flash.c ****     
 1438              		.loc 1 672 14 view .LVU353
 1439 0026 0003     		lsls	r0, r0, #12
 1440              	.LVL110:
 672:Drivers/STM32F0xx_StdPeriph_Driver/src/stm32f0xx_flash.c ****     
 1441              		.loc 1 672 14 view .LVU354
 1442 0028 FFF7FEFF 		bl	FLASH_WaitForLastOperation
 1443              	.LVL111:
 674:Drivers/STM32F0xx_StdPeriph_Driver/src/stm32f0xx_flash.c ****     {
 1444              		.loc 1 674 5 is_stmt 1 view .LVU355
 674:Drivers/STM32F0xx_StdPeriph_Driver/src/stm32f0xx_flash.c ****     {
 1445              		.loc 1 674 7 is_stmt 0 view .LVU356
 1446 002c 0428     		cmp	r0, #4
 1447 002e 07D0     		beq	.L113
 695:Drivers/STM32F0xx_StdPeriph_Driver/src/stm32f0xx_flash.c ****       {
 1448              		.loc 1 695 7 is_stmt 1 view .LVU357
 695:Drivers/STM32F0xx_StdPeriph_Driver/src/stm32f0xx_flash.c ****       {
 1449              		.loc 1 695 9 is_stmt 0 view .LVU358
 1450 0030 0528     		cmp	r0, #5
 1451 0032 EDD0     		beq	.L110
 698:Drivers/STM32F0xx_StdPeriph_Driver/src/stm32f0xx_flash.c ****       }
 1452              		.loc 1 698 9 is_stmt 1 view .LVU359
 698:Drivers/STM32F0xx_StdPeriph_Driver/src/stm32f0xx_flash.c ****       }
 1453              		.loc 1 698 19 is_stmt 0 view .LVU360
 1454 0034 0E4A     		ldr	r2, .L114
 1455 0036 1369     		ldr	r3, [r2, #16]
 1456 0038 2021     		movs	r1, #32
 1457 003a 8B43     		bics	r3, r1
 1458 003c 1361     		str	r3, [r2, #16]
ARM GAS  /tmp/ccL3hku5.s 			page 50


 1459 003e E7E7     		b	.L110
 1460              	.L113:
 677:Drivers/STM32F0xx_StdPeriph_Driver/src/stm32f0xx_flash.c ****       
 1461              		.loc 1 677 7 is_stmt 1 view .LVU361
 677:Drivers/STM32F0xx_StdPeriph_Driver/src/stm32f0xx_flash.c ****       
 1462              		.loc 1 677 17 is_stmt 0 view .LVU362
 1463 0040 0B4B     		ldr	r3, .L114
 1464 0042 1A69     		ldr	r2, [r3, #16]
 1465 0044 2021     		movs	r1, #32
 1466 0046 8A43     		bics	r2, r1
 1467 0048 1A61     		str	r2, [r3, #16]
 680:Drivers/STM32F0xx_StdPeriph_Driver/src/stm32f0xx_flash.c ****        
 1468              		.loc 1 680 7 is_stmt 1 view .LVU363
 680:Drivers/STM32F0xx_StdPeriph_Driver/src/stm32f0xx_flash.c ****        
 1469              		.loc 1 680 17 is_stmt 0 view .LVU364
 1470 004a 1A69     		ldr	r2, [r3, #16]
 1471 004c 1039     		subs	r1, r1, #16
 1472 004e 0A43     		orrs	r2, r1
 1473 0050 1A61     		str	r2, [r3, #16]
 682:Drivers/STM32F0xx_StdPeriph_Driver/src/stm32f0xx_flash.c **** 
 1474              		.loc 1 682 7 is_stmt 1 view .LVU365
 682:Drivers/STM32F0xx_StdPeriph_Driver/src/stm32f0xx_flash.c **** 
 1475              		.loc 1 682 15 is_stmt 0 view .LVU366
 1476 0052 A4B2     		uxth	r4, r4
 1477 0054 074B     		ldr	r3, .L114+4
 1478 0056 1C80     		strh	r4, [r3]
 685:Drivers/STM32F0xx_StdPeriph_Driver/src/stm32f0xx_flash.c ****     
 1479              		.loc 1 685 7 is_stmt 1 view .LVU367
 685:Drivers/STM32F0xx_StdPeriph_Driver/src/stm32f0xx_flash.c ****     
 1480              		.loc 1 685 16 is_stmt 0 view .LVU368
 1481 0058 AC30     		adds	r0, r0, #172
 1482              	.LVL112:
 685:Drivers/STM32F0xx_StdPeriph_Driver/src/stm32f0xx_flash.c ****     
 1483              		.loc 1 685 16 view .LVU369
 1484 005a 0003     		lsls	r0, r0, #12
 1485              	.LVL113:
 685:Drivers/STM32F0xx_StdPeriph_Driver/src/stm32f0xx_flash.c ****     
 1486              		.loc 1 685 16 view .LVU370
 1487 005c FFF7FEFF 		bl	FLASH_WaitForLastOperation
 1488              	.LVL114:
 687:Drivers/STM32F0xx_StdPeriph_Driver/src/stm32f0xx_flash.c ****       {
 1489              		.loc 1 687 7 is_stmt 1 view .LVU371
 687:Drivers/STM32F0xx_StdPeriph_Driver/src/stm32f0xx_flash.c ****       {
 1490              		.loc 1 687 9 is_stmt 0 view .LVU372
 1491 0060 0528     		cmp	r0, #5
 1492 0062 D5D0     		beq	.L110
 690:Drivers/STM32F0xx_StdPeriph_Driver/src/stm32f0xx_flash.c ****       }
 1493              		.loc 1 690 9 is_stmt 1 view .LVU373
 690:Drivers/STM32F0xx_StdPeriph_Driver/src/stm32f0xx_flash.c ****       }
 1494              		.loc 1 690 19 is_stmt 0 view .LVU374
 1495 0064 024A     		ldr	r2, .L114
 1496 0066 1369     		ldr	r3, [r2, #16]
 1497 0068 1021     		movs	r1, #16
 1498 006a 8B43     		bics	r3, r1
 1499 006c 1361     		str	r3, [r2, #16]
 1500 006e CFE7     		b	.L110
 1501              	.L115:
ARM GAS  /tmp/ccL3hku5.s 			page 51


 1502              		.align	2
 1503              	.L114:
 1504 0070 00200240 		.word	1073881088
 1505 0074 00F8FF1F 		.word	536868864
 1506              		.cfi_endproc
 1507              	.LFE54:
 1509              		.section	.text.FLASH_OB_UserConfig,"ax",%progbits
 1510              		.align	1
 1511              		.global	FLASH_OB_UserConfig
 1512              		.syntax unified
 1513              		.code	16
 1514              		.thumb_func
 1515              		.fpu softvfp
 1517              	FLASH_OB_UserConfig:
 1518              	.LVL115:
 1519              	.LFB55:
 728:Drivers/STM32F0xx_StdPeriph_Driver/src/stm32f0xx_flash.c ****   FLASH_Status status = FLASH_COMPLETE; 
 1520              		.loc 1 728 1 is_stmt 1 view -0
 1521              		.cfi_startproc
 1522              		@ args = 0, pretend = 0, frame = 0
 1523              		@ frame_needed = 0, uses_anonymous_args = 0
 728:Drivers/STM32F0xx_StdPeriph_Driver/src/stm32f0xx_flash.c ****   FLASH_Status status = FLASH_COMPLETE; 
 1524              		.loc 1 728 1 is_stmt 0 view .LVU376
 1525 0000 70B5     		push	{r4, r5, r6, lr}
 1526              	.LCFI9:
 1527              		.cfi_def_cfa_offset 16
 1528              		.cfi_offset 4, -16
 1529              		.cfi_offset 5, -12
 1530              		.cfi_offset 6, -8
 1531              		.cfi_offset 14, -4
 1532 0002 0500     		movs	r5, r0
 1533 0004 0E00     		movs	r6, r1
 1534 0006 1400     		movs	r4, r2
 729:Drivers/STM32F0xx_StdPeriph_Driver/src/stm32f0xx_flash.c **** 
 1535              		.loc 1 729 3 is_stmt 1 view .LVU377
 1536              	.LVL116:
 732:Drivers/STM32F0xx_StdPeriph_Driver/src/stm32f0xx_flash.c ****   assert_param(IS_OB_STOP_SOURCE(OB_STOP));
 1537              		.loc 1 732 3 view .LVU378
 733:Drivers/STM32F0xx_StdPeriph_Driver/src/stm32f0xx_flash.c ****   assert_param(IS_OB_STDBY_SOURCE(OB_STDBY));
 1538              		.loc 1 733 3 view .LVU379
 734:Drivers/STM32F0xx_StdPeriph_Driver/src/stm32f0xx_flash.c **** 
 1539              		.loc 1 734 3 view .LVU380
 737:Drivers/STM32F0xx_StdPeriph_Driver/src/stm32f0xx_flash.c ****   
 1540              		.loc 1 737 3 view .LVU381
 737:Drivers/STM32F0xx_StdPeriph_Driver/src/stm32f0xx_flash.c ****   
 1541              		.loc 1 737 12 is_stmt 0 view .LVU382
 1542 0008 B020     		movs	r0, #176
 1543              	.LVL117:
 737:Drivers/STM32F0xx_StdPeriph_Driver/src/stm32f0xx_flash.c ****   
 1544              		.loc 1 737 12 view .LVU383
 1545 000a 0003     		lsls	r0, r0, #12
 1546 000c FFF7FEFF 		bl	FLASH_WaitForLastOperation
 1547              	.LVL118:
 739:Drivers/STM32F0xx_StdPeriph_Driver/src/stm32f0xx_flash.c ****   {
 1548              		.loc 1 739 3 is_stmt 1 view .LVU384
 739:Drivers/STM32F0xx_StdPeriph_Driver/src/stm32f0xx_flash.c ****   {
 1549              		.loc 1 739 5 is_stmt 0 view .LVU385
ARM GAS  /tmp/ccL3hku5.s 			page 52


 1550 0010 0428     		cmp	r0, #4
 1551 0012 00D0     		beq	.L118
 1552              	.LVL119:
 1553              	.L117:
 756:Drivers/STM32F0xx_StdPeriph_Driver/src/stm32f0xx_flash.c **** }
 1554              		.loc 1 756 3 is_stmt 1 view .LVU386
 757:Drivers/STM32F0xx_StdPeriph_Driver/src/stm32f0xx_flash.c **** 
 1555              		.loc 1 757 1 is_stmt 0 view .LVU387
 1556              		@ sp needed
 1557 0014 70BD     		pop	{r4, r5, r6, pc}
 1558              	.L118:
 742:Drivers/STM32F0xx_StdPeriph_Driver/src/stm32f0xx_flash.c **** 
 1559              		.loc 1 742 5 is_stmt 1 view .LVU388
 742:Drivers/STM32F0xx_StdPeriph_Driver/src/stm32f0xx_flash.c **** 
 1560              		.loc 1 742 15 is_stmt 0 view .LVU389
 1561 0016 0C4A     		ldr	r2, .L119
 1562 0018 1369     		ldr	r3, [r2, #16]
 1563 001a 1021     		movs	r1, #16
 1564 001c 0B43     		orrs	r3, r1
 1565 001e 1361     		str	r3, [r2, #16]
 744:Drivers/STM32F0xx_StdPeriph_Driver/src/stm32f0xx_flash.c ****   
 1566              		.loc 1 744 5 is_stmt 1 view .LVU390
 744:Drivers/STM32F0xx_StdPeriph_Driver/src/stm32f0xx_flash.c ****   
 1567              		.loc 1 744 16 is_stmt 0 view .LVU391
 1568 0020 3543     		orrs	r5, r6
 1569 0022 2C43     		orrs	r4, r5
 1570 0024 0826     		movs	r6, #8
 1571 0026 7642     		rsbs	r6, r6, #0
 1572 0028 3443     		orrs	r4, r6
 1573 002a E4B2     		uxtb	r4, r4
 744:Drivers/STM32F0xx_StdPeriph_Driver/src/stm32f0xx_flash.c ****   
 1574              		.loc 1 744 14 view .LVU392
 1575 002c 074B     		ldr	r3, .L119+4
 1576 002e 5C80     		strh	r4, [r3, #2]
 747:Drivers/STM32F0xx_StdPeriph_Driver/src/stm32f0xx_flash.c **** 
 1577              		.loc 1 747 5 is_stmt 1 view .LVU393
 747:Drivers/STM32F0xx_StdPeriph_Driver/src/stm32f0xx_flash.c **** 
 1578              		.loc 1 747 14 is_stmt 0 view .LVU394
 1579 0030 AC30     		adds	r0, r0, #172
 1580              	.LVL120:
 747:Drivers/STM32F0xx_StdPeriph_Driver/src/stm32f0xx_flash.c **** 
 1581              		.loc 1 747 14 view .LVU395
 1582 0032 0003     		lsls	r0, r0, #12
 1583              	.LVL121:
 747:Drivers/STM32F0xx_StdPeriph_Driver/src/stm32f0xx_flash.c **** 
 1584              		.loc 1 747 14 view .LVU396
 1585 0034 FFF7FEFF 		bl	FLASH_WaitForLastOperation
 1586              	.LVL122:
 749:Drivers/STM32F0xx_StdPeriph_Driver/src/stm32f0xx_flash.c ****     {
 1587              		.loc 1 749 5 is_stmt 1 view .LVU397
 749:Drivers/STM32F0xx_StdPeriph_Driver/src/stm32f0xx_flash.c ****     {
 1588              		.loc 1 749 7 is_stmt 0 view .LVU398
 1589 0038 0528     		cmp	r0, #5
 1590 003a EBD0     		beq	.L117
 752:Drivers/STM32F0xx_StdPeriph_Driver/src/stm32f0xx_flash.c ****     }
 1591              		.loc 1 752 7 is_stmt 1 view .LVU399
 752:Drivers/STM32F0xx_StdPeriph_Driver/src/stm32f0xx_flash.c ****     }
ARM GAS  /tmp/ccL3hku5.s 			page 53


 1592              		.loc 1 752 17 is_stmt 0 view .LVU400
 1593 003c 024A     		ldr	r2, .L119
 1594 003e 1369     		ldr	r3, [r2, #16]
 1595 0040 1021     		movs	r1, #16
 1596 0042 8B43     		bics	r3, r1
 1597 0044 1361     		str	r3, [r2, #16]
 1598 0046 E5E7     		b	.L117
 1599              	.L120:
 1600              		.align	2
 1601              	.L119:
 1602 0048 00200240 		.word	1073881088
 1603 004c 00F8FF1F 		.word	536868864
 1604              		.cfi_endproc
 1605              	.LFE55:
 1607              		.section	.text.FLASH_OB_BOOTConfig,"ax",%progbits
 1608              		.align	1
 1609              		.global	FLASH_OB_BOOTConfig
 1610              		.syntax unified
 1611              		.code	16
 1612              		.thumb_func
 1613              		.fpu softvfp
 1615              	FLASH_OB_BOOTConfig:
 1616              	.LVL123:
 1617              	.LFB56:
 768:Drivers/STM32F0xx_StdPeriph_Driver/src/stm32f0xx_flash.c ****   FLASH_Status status = FLASH_COMPLETE; 
 1618              		.loc 1 768 1 is_stmt 1 view -0
 1619              		.cfi_startproc
 1620              		@ args = 0, pretend = 0, frame = 0
 1621              		@ frame_needed = 0, uses_anonymous_args = 0
 768:Drivers/STM32F0xx_StdPeriph_Driver/src/stm32f0xx_flash.c ****   FLASH_Status status = FLASH_COMPLETE; 
 1622              		.loc 1 768 1 is_stmt 0 view .LVU402
 1623 0000 10B5     		push	{r4, lr}
 1624              	.LCFI10:
 1625              		.cfi_def_cfa_offset 8
 1626              		.cfi_offset 4, -8
 1627              		.cfi_offset 14, -4
 1628 0002 0400     		movs	r4, r0
 769:Drivers/STM32F0xx_StdPeriph_Driver/src/stm32f0xx_flash.c **** 
 1629              		.loc 1 769 3 is_stmt 1 view .LVU403
 1630              	.LVL124:
 772:Drivers/STM32F0xx_StdPeriph_Driver/src/stm32f0xx_flash.c **** 
 1631              		.loc 1 772 3 view .LVU404
 775:Drivers/STM32F0xx_StdPeriph_Driver/src/stm32f0xx_flash.c ****   
 1632              		.loc 1 775 3 view .LVU405
 775:Drivers/STM32F0xx_StdPeriph_Driver/src/stm32f0xx_flash.c ****   
 1633              		.loc 1 775 12 is_stmt 0 view .LVU406
 1634 0004 B020     		movs	r0, #176
 1635              	.LVL125:
 775:Drivers/STM32F0xx_StdPeriph_Driver/src/stm32f0xx_flash.c ****   
 1636              		.loc 1 775 12 view .LVU407
 1637 0006 0003     		lsls	r0, r0, #12
 1638 0008 FFF7FEFF 		bl	FLASH_WaitForLastOperation
 1639              	.LVL126:
 777:Drivers/STM32F0xx_StdPeriph_Driver/src/stm32f0xx_flash.c ****   {  
 1640              		.loc 1 777 3 is_stmt 1 view .LVU408
 777:Drivers/STM32F0xx_StdPeriph_Driver/src/stm32f0xx_flash.c ****   {  
 1641              		.loc 1 777 5 is_stmt 0 view .LVU409
ARM GAS  /tmp/ccL3hku5.s 			page 54


 1642 000c 0428     		cmp	r0, #4
 1643 000e 00D0     		beq	.L123
 1644              	.LVL127:
 1645              	.L122:
 794:Drivers/STM32F0xx_StdPeriph_Driver/src/stm32f0xx_flash.c **** }
 1646              		.loc 1 794 3 is_stmt 1 view .LVU410
 795:Drivers/STM32F0xx_StdPeriph_Driver/src/stm32f0xx_flash.c **** 
 1647              		.loc 1 795 1 is_stmt 0 view .LVU411
 1648              		@ sp needed
 1649 0010 10BD     		pop	{r4, pc}
 1650              	.L123:
 780:Drivers/STM32F0xx_StdPeriph_Driver/src/stm32f0xx_flash.c **** 
 1651              		.loc 1 780 5 is_stmt 1 view .LVU412
 780:Drivers/STM32F0xx_StdPeriph_Driver/src/stm32f0xx_flash.c **** 
 1652              		.loc 1 780 15 is_stmt 0 view .LVU413
 1653 0012 0B4A     		ldr	r2, .L124
 1654 0014 1369     		ldr	r3, [r2, #16]
 1655 0016 1021     		movs	r1, #16
 1656 0018 0B43     		orrs	r3, r1
 1657 001a 1361     		str	r3, [r2, #16]
 782:Drivers/STM32F0xx_StdPeriph_Driver/src/stm32f0xx_flash.c ****   
 1658              		.loc 1 782 5 is_stmt 1 view .LVU414
 782:Drivers/STM32F0xx_StdPeriph_Driver/src/stm32f0xx_flash.c ****   
 1659              		.loc 1 782 14 is_stmt 0 view .LVU415
 1660 001c 1538     		subs	r0, r0, #21
 1661              	.LVL128:
 782:Drivers/STM32F0xx_StdPeriph_Driver/src/stm32f0xx_flash.c ****   
 1662              		.loc 1 782 14 view .LVU416
 1663 001e 2043     		orrs	r0, r4
 1664              	.LVL129:
 782:Drivers/STM32F0xx_StdPeriph_Driver/src/stm32f0xx_flash.c ****   
 1665              		.loc 1 782 14 view .LVU417
 1666 0020 C0B2     		uxtb	r0, r0
 1667 0022 084B     		ldr	r3, .L124+4
 1668 0024 5880     		strh	r0, [r3, #2]
 785:Drivers/STM32F0xx_StdPeriph_Driver/src/stm32f0xx_flash.c **** 
 1669              		.loc 1 785 5 is_stmt 1 view .LVU418
 785:Drivers/STM32F0xx_StdPeriph_Driver/src/stm32f0xx_flash.c **** 
 1670              		.loc 1 785 14 is_stmt 0 view .LVU419
 1671 0026 B020     		movs	r0, #176
 1672 0028 0003     		lsls	r0, r0, #12
 1673 002a FFF7FEFF 		bl	FLASH_WaitForLastOperation
 1674              	.LVL130:
 787:Drivers/STM32F0xx_StdPeriph_Driver/src/stm32f0xx_flash.c ****     {
 1675              		.loc 1 787 5 is_stmt 1 view .LVU420
 787:Drivers/STM32F0xx_StdPeriph_Driver/src/stm32f0xx_flash.c ****     {
 1676              		.loc 1 787 7 is_stmt 0 view .LVU421
 1677 002e 0528     		cmp	r0, #5
 1678 0030 EED0     		beq	.L122
 790:Drivers/STM32F0xx_StdPeriph_Driver/src/stm32f0xx_flash.c ****     }
 1679              		.loc 1 790 7 is_stmt 1 view .LVU422
 790:Drivers/STM32F0xx_StdPeriph_Driver/src/stm32f0xx_flash.c ****     }
 1680              		.loc 1 790 17 is_stmt 0 view .LVU423
 1681 0032 034A     		ldr	r2, .L124
 1682 0034 1369     		ldr	r3, [r2, #16]
 1683 0036 1021     		movs	r1, #16
 1684 0038 8B43     		bics	r3, r1
ARM GAS  /tmp/ccL3hku5.s 			page 55


 1685 003a 1361     		str	r3, [r2, #16]
 1686 003c E8E7     		b	.L122
 1687              	.L125:
 1688 003e C046     		.align	2
 1689              	.L124:
 1690 0040 00200240 		.word	1073881088
 1691 0044 00F8FF1F 		.word	536868864
 1692              		.cfi_endproc
 1693              	.LFE56:
 1695              		.section	.text.FLASH_OB_VDDAConfig,"ax",%progbits
 1696              		.align	1
 1697              		.global	FLASH_OB_VDDAConfig
 1698              		.syntax unified
 1699              		.code	16
 1700              		.thumb_func
 1701              		.fpu softvfp
 1703              	FLASH_OB_VDDAConfig:
 1704              	.LVL131:
 1705              	.LFB57:
 806:Drivers/STM32F0xx_StdPeriph_Driver/src/stm32f0xx_flash.c ****   FLASH_Status status = FLASH_COMPLETE; 
 1706              		.loc 1 806 1 is_stmt 1 view -0
 1707              		.cfi_startproc
 1708              		@ args = 0, pretend = 0, frame = 0
 1709              		@ frame_needed = 0, uses_anonymous_args = 0
 806:Drivers/STM32F0xx_StdPeriph_Driver/src/stm32f0xx_flash.c ****   FLASH_Status status = FLASH_COMPLETE; 
 1710              		.loc 1 806 1 is_stmt 0 view .LVU425
 1711 0000 10B5     		push	{r4, lr}
 1712              	.LCFI11:
 1713              		.cfi_def_cfa_offset 8
 1714              		.cfi_offset 4, -8
 1715              		.cfi_offset 14, -4
 1716 0002 0400     		movs	r4, r0
 807:Drivers/STM32F0xx_StdPeriph_Driver/src/stm32f0xx_flash.c **** 
 1717              		.loc 1 807 3 is_stmt 1 view .LVU426
 1718              	.LVL132:
 810:Drivers/STM32F0xx_StdPeriph_Driver/src/stm32f0xx_flash.c **** 
 1719              		.loc 1 810 3 view .LVU427
 813:Drivers/STM32F0xx_StdPeriph_Driver/src/stm32f0xx_flash.c ****   
 1720              		.loc 1 813 3 view .LVU428
 813:Drivers/STM32F0xx_StdPeriph_Driver/src/stm32f0xx_flash.c ****   
 1721              		.loc 1 813 12 is_stmt 0 view .LVU429
 1722 0004 B020     		movs	r0, #176
 1723              	.LVL133:
 813:Drivers/STM32F0xx_StdPeriph_Driver/src/stm32f0xx_flash.c ****   
 1724              		.loc 1 813 12 view .LVU430
 1725 0006 0003     		lsls	r0, r0, #12
 1726 0008 FFF7FEFF 		bl	FLASH_WaitForLastOperation
 1727              	.LVL134:
 815:Drivers/STM32F0xx_StdPeriph_Driver/src/stm32f0xx_flash.c ****   {  
 1728              		.loc 1 815 3 is_stmt 1 view .LVU431
 815:Drivers/STM32F0xx_StdPeriph_Driver/src/stm32f0xx_flash.c ****   {  
 1729              		.loc 1 815 5 is_stmt 0 view .LVU432
 1730 000c 0428     		cmp	r0, #4
 1731 000e 00D0     		beq	.L128
 1732              	.LVL135:
 1733              	.L127:
 832:Drivers/STM32F0xx_StdPeriph_Driver/src/stm32f0xx_flash.c **** }
ARM GAS  /tmp/ccL3hku5.s 			page 56


 1734              		.loc 1 832 3 is_stmt 1 view .LVU433
 833:Drivers/STM32F0xx_StdPeriph_Driver/src/stm32f0xx_flash.c **** 
 1735              		.loc 1 833 1 is_stmt 0 view .LVU434
 1736              		@ sp needed
 1737 0010 10BD     		pop	{r4, pc}
 1738              	.L128:
 818:Drivers/STM32F0xx_StdPeriph_Driver/src/stm32f0xx_flash.c **** 
 1739              		.loc 1 818 5 is_stmt 1 view .LVU435
 818:Drivers/STM32F0xx_StdPeriph_Driver/src/stm32f0xx_flash.c **** 
 1740              		.loc 1 818 15 is_stmt 0 view .LVU436
 1741 0012 0B4A     		ldr	r2, .L129
 1742 0014 1369     		ldr	r3, [r2, #16]
 1743 0016 1021     		movs	r1, #16
 1744 0018 0B43     		orrs	r3, r1
 1745 001a 1361     		str	r3, [r2, #16]
 820:Drivers/STM32F0xx_StdPeriph_Driver/src/stm32f0xx_flash.c ****   
 1746              		.loc 1 820 5 is_stmt 1 view .LVU437
 820:Drivers/STM32F0xx_StdPeriph_Driver/src/stm32f0xx_flash.c ****   
 1747              		.loc 1 820 14 is_stmt 0 view .LVU438
 1748 001c 2538     		subs	r0, r0, #37
 1749              	.LVL136:
 820:Drivers/STM32F0xx_StdPeriph_Driver/src/stm32f0xx_flash.c ****   
 1750              		.loc 1 820 14 view .LVU439
 1751 001e 2043     		orrs	r0, r4
 1752              	.LVL137:
 820:Drivers/STM32F0xx_StdPeriph_Driver/src/stm32f0xx_flash.c ****   
 1753              		.loc 1 820 14 view .LVU440
 1754 0020 C0B2     		uxtb	r0, r0
 1755 0022 084B     		ldr	r3, .L129+4
 1756 0024 5880     		strh	r0, [r3, #2]
 823:Drivers/STM32F0xx_StdPeriph_Driver/src/stm32f0xx_flash.c **** 
 1757              		.loc 1 823 5 is_stmt 1 view .LVU441
 823:Drivers/STM32F0xx_StdPeriph_Driver/src/stm32f0xx_flash.c **** 
 1758              		.loc 1 823 14 is_stmt 0 view .LVU442
 1759 0026 B020     		movs	r0, #176
 1760 0028 0003     		lsls	r0, r0, #12
 1761 002a FFF7FEFF 		bl	FLASH_WaitForLastOperation
 1762              	.LVL138:
 825:Drivers/STM32F0xx_StdPeriph_Driver/src/stm32f0xx_flash.c ****     {
 1763              		.loc 1 825 5 is_stmt 1 view .LVU443
 825:Drivers/STM32F0xx_StdPeriph_Driver/src/stm32f0xx_flash.c ****     {
 1764              		.loc 1 825 7 is_stmt 0 view .LVU444
 1765 002e 0528     		cmp	r0, #5
 1766 0030 EED0     		beq	.L127
 828:Drivers/STM32F0xx_StdPeriph_Driver/src/stm32f0xx_flash.c ****     }
 1767              		.loc 1 828 7 is_stmt 1 view .LVU445
 828:Drivers/STM32F0xx_StdPeriph_Driver/src/stm32f0xx_flash.c ****     }
 1768              		.loc 1 828 17 is_stmt 0 view .LVU446
 1769 0032 034A     		ldr	r2, .L129
 1770 0034 1369     		ldr	r3, [r2, #16]
 1771 0036 1021     		movs	r1, #16
 1772 0038 8B43     		bics	r3, r1
 1773 003a 1361     		str	r3, [r2, #16]
 1774 003c E8E7     		b	.L127
 1775              	.L130:
 1776 003e C046     		.align	2
 1777              	.L129:
ARM GAS  /tmp/ccL3hku5.s 			page 57


 1778 0040 00200240 		.word	1073881088
 1779 0044 00F8FF1F 		.word	536868864
 1780              		.cfi_endproc
 1781              	.LFE57:
 1783              		.section	.text.FLASH_OB_SRAMParityConfig,"ax",%progbits
 1784              		.align	1
 1785              		.global	FLASH_OB_SRAMParityConfig
 1786              		.syntax unified
 1787              		.code	16
 1788              		.thumb_func
 1789              		.fpu softvfp
 1791              	FLASH_OB_SRAMParityConfig:
 1792              	.LVL139:
 1793              	.LFB58:
 844:Drivers/STM32F0xx_StdPeriph_Driver/src/stm32f0xx_flash.c ****   FLASH_Status status = FLASH_COMPLETE; 
 1794              		.loc 1 844 1 is_stmt 1 view -0
 1795              		.cfi_startproc
 1796              		@ args = 0, pretend = 0, frame = 0
 1797              		@ frame_needed = 0, uses_anonymous_args = 0
 844:Drivers/STM32F0xx_StdPeriph_Driver/src/stm32f0xx_flash.c ****   FLASH_Status status = FLASH_COMPLETE; 
 1798              		.loc 1 844 1 is_stmt 0 view .LVU448
 1799 0000 10B5     		push	{r4, lr}
 1800              	.LCFI12:
 1801              		.cfi_def_cfa_offset 8
 1802              		.cfi_offset 4, -8
 1803              		.cfi_offset 14, -4
 1804 0002 0400     		movs	r4, r0
 845:Drivers/STM32F0xx_StdPeriph_Driver/src/stm32f0xx_flash.c **** 
 1805              		.loc 1 845 3 is_stmt 1 view .LVU449
 1806              	.LVL140:
 848:Drivers/STM32F0xx_StdPeriph_Driver/src/stm32f0xx_flash.c **** 
 1807              		.loc 1 848 3 view .LVU450
 851:Drivers/STM32F0xx_StdPeriph_Driver/src/stm32f0xx_flash.c ****   
 1808              		.loc 1 851 3 view .LVU451
 851:Drivers/STM32F0xx_StdPeriph_Driver/src/stm32f0xx_flash.c ****   
 1809              		.loc 1 851 12 is_stmt 0 view .LVU452
 1810 0004 B020     		movs	r0, #176
 1811              	.LVL141:
 851:Drivers/STM32F0xx_StdPeriph_Driver/src/stm32f0xx_flash.c ****   
 1812              		.loc 1 851 12 view .LVU453
 1813 0006 0003     		lsls	r0, r0, #12
 1814 0008 FFF7FEFF 		bl	FLASH_WaitForLastOperation
 1815              	.LVL142:
 853:Drivers/STM32F0xx_StdPeriph_Driver/src/stm32f0xx_flash.c ****   {  
 1816              		.loc 1 853 3 is_stmt 1 view .LVU454
 853:Drivers/STM32F0xx_StdPeriph_Driver/src/stm32f0xx_flash.c ****   {  
 1817              		.loc 1 853 5 is_stmt 0 view .LVU455
 1818 000c 0428     		cmp	r0, #4
 1819 000e 00D0     		beq	.L133
 1820              	.LVL143:
 1821              	.L132:
 870:Drivers/STM32F0xx_StdPeriph_Driver/src/stm32f0xx_flash.c **** }
 1822              		.loc 1 870 3 is_stmt 1 view .LVU456
 871:Drivers/STM32F0xx_StdPeriph_Driver/src/stm32f0xx_flash.c **** 
 1823              		.loc 1 871 1 is_stmt 0 view .LVU457
 1824              		@ sp needed
 1825 0010 10BD     		pop	{r4, pc}
ARM GAS  /tmp/ccL3hku5.s 			page 58


 1826              	.L133:
 856:Drivers/STM32F0xx_StdPeriph_Driver/src/stm32f0xx_flash.c **** 
 1827              		.loc 1 856 5 is_stmt 1 view .LVU458
 856:Drivers/STM32F0xx_StdPeriph_Driver/src/stm32f0xx_flash.c **** 
 1828              		.loc 1 856 15 is_stmt 0 view .LVU459
 1829 0012 0B4A     		ldr	r2, .L134
 1830 0014 1369     		ldr	r3, [r2, #16]
 1831 0016 1021     		movs	r1, #16
 1832 0018 0B43     		orrs	r3, r1
 1833 001a 1361     		str	r3, [r2, #16]
 858:Drivers/STM32F0xx_StdPeriph_Driver/src/stm32f0xx_flash.c ****   
 1834              		.loc 1 858 5 is_stmt 1 view .LVU460
 858:Drivers/STM32F0xx_StdPeriph_Driver/src/stm32f0xx_flash.c ****   
 1835              		.loc 1 858 14 is_stmt 0 view .LVU461
 1836 001c 4538     		subs	r0, r0, #69
 1837              	.LVL144:
 858:Drivers/STM32F0xx_StdPeriph_Driver/src/stm32f0xx_flash.c ****   
 1838              		.loc 1 858 14 view .LVU462
 1839 001e 2043     		orrs	r0, r4
 1840              	.LVL145:
 858:Drivers/STM32F0xx_StdPeriph_Driver/src/stm32f0xx_flash.c ****   
 1841              		.loc 1 858 14 view .LVU463
 1842 0020 C0B2     		uxtb	r0, r0
 1843 0022 084B     		ldr	r3, .L134+4
 1844 0024 5880     		strh	r0, [r3, #2]
 861:Drivers/STM32F0xx_StdPeriph_Driver/src/stm32f0xx_flash.c **** 
 1845              		.loc 1 861 5 is_stmt 1 view .LVU464
 861:Drivers/STM32F0xx_StdPeriph_Driver/src/stm32f0xx_flash.c **** 
 1846              		.loc 1 861 14 is_stmt 0 view .LVU465
 1847 0026 B020     		movs	r0, #176
 1848 0028 0003     		lsls	r0, r0, #12
 1849 002a FFF7FEFF 		bl	FLASH_WaitForLastOperation
 1850              	.LVL146:
 863:Drivers/STM32F0xx_StdPeriph_Driver/src/stm32f0xx_flash.c ****     {
 1851              		.loc 1 863 5 is_stmt 1 view .LVU466
 863:Drivers/STM32F0xx_StdPeriph_Driver/src/stm32f0xx_flash.c ****     {
 1852              		.loc 1 863 7 is_stmt 0 view .LVU467
 1853 002e 0528     		cmp	r0, #5
 1854 0030 EED0     		beq	.L132
 866:Drivers/STM32F0xx_StdPeriph_Driver/src/stm32f0xx_flash.c ****     }
 1855              		.loc 1 866 7 is_stmt 1 view .LVU468
 866:Drivers/STM32F0xx_StdPeriph_Driver/src/stm32f0xx_flash.c ****     }
 1856              		.loc 1 866 17 is_stmt 0 view .LVU469
 1857 0032 034A     		ldr	r2, .L134
 1858 0034 1369     		ldr	r3, [r2, #16]
 1859 0036 1021     		movs	r1, #16
 1860 0038 8B43     		bics	r3, r1
 1861 003a 1361     		str	r3, [r2, #16]
 1862 003c E8E7     		b	.L132
 1863              	.L135:
 1864 003e C046     		.align	2
 1865              	.L134:
 1866 0040 00200240 		.word	1073881088
 1867 0044 00F8FF1F 		.word	536868864
 1868              		.cfi_endproc
 1869              	.LFE58:
 1871              		.section	.text.FLASH_OB_WriteUser,"ax",%progbits
ARM GAS  /tmp/ccL3hku5.s 			page 59


 1872              		.align	1
 1873              		.global	FLASH_OB_WriteUser
 1874              		.syntax unified
 1875              		.code	16
 1876              		.thumb_func
 1877              		.fpu softvfp
 1879              	FLASH_OB_WriteUser:
 1880              	.LVL147:
 1881              	.LFB59:
 892:Drivers/STM32F0xx_StdPeriph_Driver/src/stm32f0xx_flash.c ****   FLASH_Status status = FLASH_COMPLETE; 
 1882              		.loc 1 892 1 is_stmt 1 view -0
 1883              		.cfi_startproc
 1884              		@ args = 0, pretend = 0, frame = 0
 1885              		@ frame_needed = 0, uses_anonymous_args = 0
 892:Drivers/STM32F0xx_StdPeriph_Driver/src/stm32f0xx_flash.c ****   FLASH_Status status = FLASH_COMPLETE; 
 1886              		.loc 1 892 1 is_stmt 0 view .LVU471
 1887 0000 10B5     		push	{r4, lr}
 1888              	.LCFI13:
 1889              		.cfi_def_cfa_offset 8
 1890              		.cfi_offset 4, -8
 1891              		.cfi_offset 14, -4
 1892 0002 0400     		movs	r4, r0
 893:Drivers/STM32F0xx_StdPeriph_Driver/src/stm32f0xx_flash.c **** 
 1893              		.loc 1 893 3 is_stmt 1 view .LVU472
 1894              	.LVL148:
 896:Drivers/STM32F0xx_StdPeriph_Driver/src/stm32f0xx_flash.c ****   
 1895              		.loc 1 896 3 view .LVU473
 896:Drivers/STM32F0xx_StdPeriph_Driver/src/stm32f0xx_flash.c ****   
 1896              		.loc 1 896 12 is_stmt 0 view .LVU474
 1897 0004 B020     		movs	r0, #176
 1898              	.LVL149:
 896:Drivers/STM32F0xx_StdPeriph_Driver/src/stm32f0xx_flash.c ****   
 1899              		.loc 1 896 12 view .LVU475
 1900 0006 0003     		lsls	r0, r0, #12
 1901 0008 FFF7FEFF 		bl	FLASH_WaitForLastOperation
 1902              	.LVL150:
 898:Drivers/STM32F0xx_StdPeriph_Driver/src/stm32f0xx_flash.c ****   {
 1903              		.loc 1 898 3 is_stmt 1 view .LVU476
 898:Drivers/STM32F0xx_StdPeriph_Driver/src/stm32f0xx_flash.c ****   {
 1904              		.loc 1 898 5 is_stmt 0 view .LVU477
 1905 000c 0428     		cmp	r0, #4
 1906 000e 00D0     		beq	.L138
 1907              	.LVL151:
 1908              	.L137:
 915:Drivers/STM32F0xx_StdPeriph_Driver/src/stm32f0xx_flash.c **** 
 1909              		.loc 1 915 3 is_stmt 1 view .LVU478
 917:Drivers/STM32F0xx_StdPeriph_Driver/src/stm32f0xx_flash.c **** 
 1910              		.loc 1 917 1 is_stmt 0 view .LVU479
 1911              		@ sp needed
 1912 0010 10BD     		pop	{r4, pc}
 1913              	.L138:
 901:Drivers/STM32F0xx_StdPeriph_Driver/src/stm32f0xx_flash.c **** 
 1914              		.loc 1 901 5 is_stmt 1 view .LVU480
 901:Drivers/STM32F0xx_StdPeriph_Driver/src/stm32f0xx_flash.c **** 
 1915              		.loc 1 901 15 is_stmt 0 view .LVU481
 1916 0012 0B4A     		ldr	r2, .L139
 1917 0014 1369     		ldr	r3, [r2, #16]
ARM GAS  /tmp/ccL3hku5.s 			page 60


 1918 0016 1021     		movs	r1, #16
 1919 0018 0B43     		orrs	r3, r1
 1920 001a 1361     		str	r3, [r2, #16]
 903:Drivers/STM32F0xx_StdPeriph_Driver/src/stm32f0xx_flash.c ****   
 1921              		.loc 1 903 5 is_stmt 1 view .LVU482
 903:Drivers/STM32F0xx_StdPeriph_Driver/src/stm32f0xx_flash.c ****   
 1922              		.loc 1 903 14 is_stmt 0 view .LVU483
 1923 001c 7C38     		subs	r0, r0, #124
 1924              	.LVL152:
 903:Drivers/STM32F0xx_StdPeriph_Driver/src/stm32f0xx_flash.c ****   
 1925              		.loc 1 903 14 view .LVU484
 1926 001e 2043     		orrs	r0, r4
 1927              	.LVL153:
 903:Drivers/STM32F0xx_StdPeriph_Driver/src/stm32f0xx_flash.c ****   
 1928              		.loc 1 903 14 view .LVU485
 1929 0020 C0B2     		uxtb	r0, r0
 1930 0022 084B     		ldr	r3, .L139+4
 1931 0024 5880     		strh	r0, [r3, #2]
 906:Drivers/STM32F0xx_StdPeriph_Driver/src/stm32f0xx_flash.c **** 
 1932              		.loc 1 906 5 is_stmt 1 view .LVU486
 906:Drivers/STM32F0xx_StdPeriph_Driver/src/stm32f0xx_flash.c **** 
 1933              		.loc 1 906 14 is_stmt 0 view .LVU487
 1934 0026 B020     		movs	r0, #176
 1935 0028 0003     		lsls	r0, r0, #12
 1936 002a FFF7FEFF 		bl	FLASH_WaitForLastOperation
 1937              	.LVL154:
 908:Drivers/STM32F0xx_StdPeriph_Driver/src/stm32f0xx_flash.c ****     {
 1938              		.loc 1 908 5 is_stmt 1 view .LVU488
 908:Drivers/STM32F0xx_StdPeriph_Driver/src/stm32f0xx_flash.c ****     {
 1939              		.loc 1 908 7 is_stmt 0 view .LVU489
 1940 002e 0528     		cmp	r0, #5
 1941 0030 EED0     		beq	.L137
 911:Drivers/STM32F0xx_StdPeriph_Driver/src/stm32f0xx_flash.c ****     }
 1942              		.loc 1 911 7 is_stmt 1 view .LVU490
 911:Drivers/STM32F0xx_StdPeriph_Driver/src/stm32f0xx_flash.c ****     }
 1943              		.loc 1 911 17 is_stmt 0 view .LVU491
 1944 0032 034A     		ldr	r2, .L139
 1945 0034 1369     		ldr	r3, [r2, #16]
 1946 0036 1021     		movs	r1, #16
 1947 0038 8B43     		bics	r3, r1
 1948 003a 1361     		str	r3, [r2, #16]
 1949 003c E8E7     		b	.L137
 1950              	.L140:
 1951 003e C046     		.align	2
 1952              	.L139:
 1953 0040 00200240 		.word	1073881088
 1954 0044 00F8FF1F 		.word	536868864
 1955              		.cfi_endproc
 1956              	.LFE59:
 1958              		.section	.text.FLASH_ProgramOptionByteData,"ax",%progbits
 1959              		.align	1
 1960              		.global	FLASH_ProgramOptionByteData
 1961              		.syntax unified
 1962              		.code	16
 1963              		.thumb_func
 1964              		.fpu softvfp
 1966              	FLASH_ProgramOptionByteData:
ARM GAS  /tmp/ccL3hku5.s 			page 61


 1967              	.LVL155:
 1968              	.LFB60:
 932:Drivers/STM32F0xx_StdPeriph_Driver/src/stm32f0xx_flash.c ****   FLASH_Status status = FLASH_COMPLETE;
 1969              		.loc 1 932 1 is_stmt 1 view -0
 1970              		.cfi_startproc
 1971              		@ args = 0, pretend = 0, frame = 0
 1972              		@ frame_needed = 0, uses_anonymous_args = 0
 932:Drivers/STM32F0xx_StdPeriph_Driver/src/stm32f0xx_flash.c ****   FLASH_Status status = FLASH_COMPLETE;
 1973              		.loc 1 932 1 is_stmt 0 view .LVU493
 1974 0000 70B5     		push	{r4, r5, r6, lr}
 1975              	.LCFI14:
 1976              		.cfi_def_cfa_offset 16
 1977              		.cfi_offset 4, -16
 1978              		.cfi_offset 5, -12
 1979              		.cfi_offset 6, -8
 1980              		.cfi_offset 14, -4
 1981 0002 0500     		movs	r5, r0
 1982 0004 0C00     		movs	r4, r1
 933:Drivers/STM32F0xx_StdPeriph_Driver/src/stm32f0xx_flash.c ****   /* Check the parameters */
 1983              		.loc 1 933 3 is_stmt 1 view .LVU494
 1984              	.LVL156:
 935:Drivers/STM32F0xx_StdPeriph_Driver/src/stm32f0xx_flash.c ****   status = FLASH_WaitForLastOperation(FLASH_ER_PRG_TIMEOUT);
 1985              		.loc 1 935 3 view .LVU495
 936:Drivers/STM32F0xx_StdPeriph_Driver/src/stm32f0xx_flash.c **** 
 1986              		.loc 1 936 3 view .LVU496
 936:Drivers/STM32F0xx_StdPeriph_Driver/src/stm32f0xx_flash.c **** 
 1987              		.loc 1 936 12 is_stmt 0 view .LVU497
 1988 0006 B020     		movs	r0, #176
 1989              	.LVL157:
 936:Drivers/STM32F0xx_StdPeriph_Driver/src/stm32f0xx_flash.c **** 
 1990              		.loc 1 936 12 view .LVU498
 1991 0008 0003     		lsls	r0, r0, #12
 1992 000a FFF7FEFF 		bl	FLASH_WaitForLastOperation
 1993              	.LVL158:
 938:Drivers/STM32F0xx_StdPeriph_Driver/src/stm32f0xx_flash.c ****   {
 1994              		.loc 1 938 3 is_stmt 1 view .LVU499
 938:Drivers/STM32F0xx_StdPeriph_Driver/src/stm32f0xx_flash.c ****   {
 1995              		.loc 1 938 5 is_stmt 0 view .LVU500
 1996 000e 0428     		cmp	r0, #4
 1997 0010 00D0     		beq	.L143
 1998              	.LVL159:
 1999              	.L142:
 954:Drivers/STM32F0xx_StdPeriph_Driver/src/stm32f0xx_flash.c **** }
 2000              		.loc 1 954 3 is_stmt 1 view .LVU501
 955:Drivers/STM32F0xx_StdPeriph_Driver/src/stm32f0xx_flash.c **** 
 2001              		.loc 1 955 1 is_stmt 0 view .LVU502
 2002              		@ sp needed
 2003              	.LVL160:
 955:Drivers/STM32F0xx_StdPeriph_Driver/src/stm32f0xx_flash.c **** 
 2004              		.loc 1 955 1 view .LVU503
 2005 0012 70BD     		pop	{r4, r5, r6, pc}
 2006              	.LVL161:
 2007              	.L143:
 941:Drivers/STM32F0xx_StdPeriph_Driver/src/stm32f0xx_flash.c ****     *(__IO uint16_t*)Address = Data;
 2008              		.loc 1 941 5 is_stmt 1 view .LVU504
 941:Drivers/STM32F0xx_StdPeriph_Driver/src/stm32f0xx_flash.c ****     *(__IO uint16_t*)Address = Data;
 2009              		.loc 1 941 15 is_stmt 0 view .LVU505
ARM GAS  /tmp/ccL3hku5.s 			page 62


 2010 0014 094A     		ldr	r2, .L144
 2011 0016 1369     		ldr	r3, [r2, #16]
 2012 0018 1021     		movs	r1, #16
 2013 001a 0B43     		orrs	r3, r1
 2014 001c 1361     		str	r3, [r2, #16]
 942:Drivers/STM32F0xx_StdPeriph_Driver/src/stm32f0xx_flash.c ****     
 2015              		.loc 1 942 5 is_stmt 1 view .LVU506
 942:Drivers/STM32F0xx_StdPeriph_Driver/src/stm32f0xx_flash.c ****     
 2016              		.loc 1 942 30 is_stmt 0 view .LVU507
 2017 001e A4B2     		uxth	r4, r4
 2018 0020 2C80     		strh	r4, [r5]
 945:Drivers/STM32F0xx_StdPeriph_Driver/src/stm32f0xx_flash.c ****     
 2019              		.loc 1 945 5 is_stmt 1 view .LVU508
 945:Drivers/STM32F0xx_StdPeriph_Driver/src/stm32f0xx_flash.c ****     
 2020              		.loc 1 945 14 is_stmt 0 view .LVU509
 2021 0022 AC30     		adds	r0, r0, #172
 2022              	.LVL162:
 945:Drivers/STM32F0xx_StdPeriph_Driver/src/stm32f0xx_flash.c ****     
 2023              		.loc 1 945 14 view .LVU510
 2024 0024 0003     		lsls	r0, r0, #12
 2025              	.LVL163:
 945:Drivers/STM32F0xx_StdPeriph_Driver/src/stm32f0xx_flash.c ****     
 2026              		.loc 1 945 14 view .LVU511
 2027 0026 FFF7FEFF 		bl	FLASH_WaitForLastOperation
 2028              	.LVL164:
 947:Drivers/STM32F0xx_StdPeriph_Driver/src/stm32f0xx_flash.c ****     {
 2029              		.loc 1 947 5 is_stmt 1 view .LVU512
 947:Drivers/STM32F0xx_StdPeriph_Driver/src/stm32f0xx_flash.c ****     {
 2030              		.loc 1 947 7 is_stmt 0 view .LVU513
 2031 002a 0528     		cmp	r0, #5
 2032 002c F1D0     		beq	.L142
 950:Drivers/STM32F0xx_StdPeriph_Driver/src/stm32f0xx_flash.c ****     }
 2033              		.loc 1 950 7 is_stmt 1 view .LVU514
 950:Drivers/STM32F0xx_StdPeriph_Driver/src/stm32f0xx_flash.c ****     }
 2034              		.loc 1 950 17 is_stmt 0 view .LVU515
 2035 002e 034A     		ldr	r2, .L144
 2036 0030 1369     		ldr	r3, [r2, #16]
 2037 0032 1021     		movs	r1, #16
 2038 0034 8B43     		bics	r3, r1
 2039 0036 1361     		str	r3, [r2, #16]
 2040 0038 EBE7     		b	.L142
 2041              	.L145:
 2042 003a C046     		.align	2
 2043              	.L144:
 2044 003c 00200240 		.word	1073881088
 2045              		.cfi_endproc
 2046              	.LFE60:
 2048              		.text
 2049              	.Letext0:
 2050              		.file 2 "/usr/arm-none-eabi/include/machine/_default_types.h"
 2051              		.file 3 "/usr/arm-none-eabi/include/sys/_stdint.h"
 2052              		.file 4 "Drivers/CMSIS/Device/ST/STM32F0xx/Include/stm32f0xx.h"
 2053              		.file 5 "Drivers/STM32F0xx_StdPeriph_Driver/inc/stm32f0xx_flash.h"
 2054              		.file 6 "Drivers/CMSIS/Device/ST/STM32F0xx/Include/system_stm32f0xx.h"
ARM GAS  /tmp/ccL3hku5.s 			page 63

