ARM GAS  /tmp/ccJwJrKF.s 			page 1


   1              		.cpu cortex-m0
   2              		.eabi_attribute 20, 1
   3              		.eabi_attribute 21, 1
   4              		.eabi_attribute 23, 3
   5              		.eabi_attribute 24, 1
   6              		.eabi_attribute 25, 1
   7              		.eabi_attribute 26, 1
   8              		.eabi_attribute 30, 1
   9              		.eabi_attribute 34, 0
  10              		.eabi_attribute 18, 4
  11              		.file	"stm32f0xx_cec.c"
  12              		.text
  13              	.Ltext0:
  14              		.cfi_sections	.debug_frame
  15              		.section	.text.CEC_DeInit,"ax",%progbits
  16              		.align	1
  17              		.global	CEC_DeInit
  18              		.arch armv6s-m
  19              		.syntax unified
  20              		.code	16
  21              		.thumb_func
  22              		.fpu softvfp
  24              	CEC_DeInit:
  25              	.LFB40:
  26              		.file 1 "Drivers/STM32F0xx_StdPeriph_Driver/src/stm32f0xx_cec.c"
   1:Drivers/STM32F0xx_StdPeriph_Driver/src/stm32f0xx_cec.c **** /**
   2:Drivers/STM32F0xx_StdPeriph_Driver/src/stm32f0xx_cec.c ****   ******************************************************************************
   3:Drivers/STM32F0xx_StdPeriph_Driver/src/stm32f0xx_cec.c ****   * @file    stm32f0xx_cec.c
   4:Drivers/STM32F0xx_StdPeriph_Driver/src/stm32f0xx_cec.c ****   * @author  MCD Application Team
   5:Drivers/STM32F0xx_StdPeriph_Driver/src/stm32f0xx_cec.c ****   * @version V1.0.0
   6:Drivers/STM32F0xx_StdPeriph_Driver/src/stm32f0xx_cec.c ****   * @date    23-March-2012
   7:Drivers/STM32F0xx_StdPeriph_Driver/src/stm32f0xx_cec.c ****   * @brief   This file provides firmware functions to manage the following 
   8:Drivers/STM32F0xx_StdPeriph_Driver/src/stm32f0xx_cec.c ****   *          functionalities of the Consumer Electronics Control (CEC) peripheral:
   9:Drivers/STM32F0xx_StdPeriph_Driver/src/stm32f0xx_cec.c ****   *            + Initialization and Configuration
  10:Drivers/STM32F0xx_StdPeriph_Driver/src/stm32f0xx_cec.c ****   *            + Data transfers functions
  11:Drivers/STM32F0xx_StdPeriph_Driver/src/stm32f0xx_cec.c ****   *            + Interrupts and flags management
  12:Drivers/STM32F0xx_StdPeriph_Driver/src/stm32f0xx_cec.c ****   *               
  13:Drivers/STM32F0xx_StdPeriph_Driver/src/stm32f0xx_cec.c ****   *  @verbatim
  14:Drivers/STM32F0xx_StdPeriph_Driver/src/stm32f0xx_cec.c ****   ==============================================================================
  15:Drivers/STM32F0xx_StdPeriph_Driver/src/stm32f0xx_cec.c ****                             ##### CEC features #####
  16:Drivers/STM32F0xx_StdPeriph_Driver/src/stm32f0xx_cec.c ****   ==============================================================================
  17:Drivers/STM32F0xx_StdPeriph_Driver/src/stm32f0xx_cec.c ****       [..] This device provides some features:
  18:Drivers/STM32F0xx_StdPeriph_Driver/src/stm32f0xx_cec.c ****            (#) Supports HDMI-CEC specification 1.4.
  19:Drivers/STM32F0xx_StdPeriph_Driver/src/stm32f0xx_cec.c ****            (#) Supports two source clocks(HSI/244 or LSE).
  20:Drivers/STM32F0xx_StdPeriph_Driver/src/stm32f0xx_cec.c ****            (#) Works in stop mode(without APB clock, but with CEC clock 32KHz).
  21:Drivers/STM32F0xx_StdPeriph_Driver/src/stm32f0xx_cec.c ****                It can genarate an interrupt in the CEC clock domain that the CPU 
  22:Drivers/STM32F0xx_StdPeriph_Driver/src/stm32f0xx_cec.c ****                wakes up from the low power mode.
  23:Drivers/STM32F0xx_StdPeriph_Driver/src/stm32f0xx_cec.c ****            (#) Configurable Signal Free Time before of transmission start. The 
  24:Drivers/STM32F0xx_StdPeriph_Driver/src/stm32f0xx_cec.c ****                number of nominal data bit periods waited before transmission can be
  25:Drivers/STM32F0xx_StdPeriph_Driver/src/stm32f0xx_cec.c ****                ruled by Hardware or Software.
  26:Drivers/STM32F0xx_StdPeriph_Driver/src/stm32f0xx_cec.c ****            (#) Configurable Peripheral Address (multi-addressing configuration).
  27:Drivers/STM32F0xx_StdPeriph_Driver/src/stm32f0xx_cec.c ****            (#) Supports listen mode.The CEC Messages addressed to different destination
  28:Drivers/STM32F0xx_StdPeriph_Driver/src/stm32f0xx_cec.c ****                can be received without interfering with CEC bus when Listen mode option is enabled.
  29:Drivers/STM32F0xx_StdPeriph_Driver/src/stm32f0xx_cec.c ****            (#) Configurable Rx-Tolerance(Standard and Extended tolerance margin).
  30:Drivers/STM32F0xx_StdPeriph_Driver/src/stm32f0xx_cec.c ****            (#) Error detection with configurable error bit generation.
  31:Drivers/STM32F0xx_StdPeriph_Driver/src/stm32f0xx_cec.c ****            (#) Arbitration lost error in the case of two CEC devices starting at the same time.
  32:Drivers/STM32F0xx_StdPeriph_Driver/src/stm32f0xx_cec.c **** 
ARM GAS  /tmp/ccJwJrKF.s 			page 2


  33:Drivers/STM32F0xx_StdPeriph_Driver/src/stm32f0xx_cec.c ****                             ##### How to use this driver ##### 
  34:Drivers/STM32F0xx_StdPeriph_Driver/src/stm32f0xx_cec.c ****   ==============================================================================
  35:Drivers/STM32F0xx_StdPeriph_Driver/src/stm32f0xx_cec.c ****       [..] This driver provides functions to configure and program the CEC device,
  36:Drivers/STM32F0xx_StdPeriph_Driver/src/stm32f0xx_cec.c ****        follow steps below:
  37:Drivers/STM32F0xx_StdPeriph_Driver/src/stm32f0xx_cec.c ****            (#) The source clock can be configured using:
  38:Drivers/STM32F0xx_StdPeriph_Driver/src/stm32f0xx_cec.c ****                (++) RCC_CECCLKConfig(RCC_CECCLK_HSI_Div244) for HSI(Default) 
  39:Drivers/STM32F0xx_StdPeriph_Driver/src/stm32f0xx_cec.c ****                (++) RCC_CECCLKConfig(RCC_CECCLK_LSE) for LSE.
  40:Drivers/STM32F0xx_StdPeriph_Driver/src/stm32f0xx_cec.c ****            (#) Enable CEC peripheral clock using RCC_APBPeriphClockCmd(RCC_APBPeriph_CEC, ENABLE).
  41:Drivers/STM32F0xx_StdPeriph_Driver/src/stm32f0xx_cec.c ****            (#) Peripherals alternate function.
  42:Drivers/STM32F0xx_StdPeriph_Driver/src/stm32f0xx_cec.c ****                (++) Connect the pin to the desired peripherals' Alternate Function (AF) using 
  43:Drivers/STM32F0xx_StdPeriph_Driver/src/stm32f0xx_cec.c ****                GPIO_PinAFConfig() function.
  44:Drivers/STM32F0xx_StdPeriph_Driver/src/stm32f0xx_cec.c ****                (++) Configure the desired pin in alternate function by:
  45:Drivers/STM32F0xx_StdPeriph_Driver/src/stm32f0xx_cec.c ****                GPIO_InitStruct->GPIO_Mode = GPIO_Mode_AF.
  46:Drivers/STM32F0xx_StdPeriph_Driver/src/stm32f0xx_cec.c ****                (++) Select the type open-drain and output speed via GPIO_OType 
  47:Drivers/STM32F0xx_StdPeriph_Driver/src/stm32f0xx_cec.c ****                and GPIO_Speed members.
  48:Drivers/STM32F0xx_StdPeriph_Driver/src/stm32f0xx_cec.c ****                (++) Call GPIO_Init() function.
  49:Drivers/STM32F0xx_StdPeriph_Driver/src/stm32f0xx_cec.c ****            (#) Configure the Signal Free Time, Rx Tolerance, Stop reception generation 
  50:Drivers/STM32F0xx_StdPeriph_Driver/src/stm32f0xx_cec.c ****                and Bit error generation using the CEC_Init() function.
  51:Drivers/STM32F0xx_StdPeriph_Driver/src/stm32f0xx_cec.c ****                The function CEC_Init() must be called when the CEC peripheral is disabled.
  52:Drivers/STM32F0xx_StdPeriph_Driver/src/stm32f0xx_cec.c ****            (#) Configure the CEC own address by calling the fuction CEC_OwnAddressConfig().
  53:Drivers/STM32F0xx_StdPeriph_Driver/src/stm32f0xx_cec.c ****            (#) Optionally, you can configure the Listen mode using the function CEC_ListenModeCmd()
  54:Drivers/STM32F0xx_StdPeriph_Driver/src/stm32f0xx_cec.c ****            (#) Enable the NVIC and the corresponding interrupt using the function 
  55:Drivers/STM32F0xx_StdPeriph_Driver/src/stm32f0xx_cec.c ****                CEC_ITConfig() if you need to use interrupt mode.
  56:Drivers/STM32F0xx_StdPeriph_Driver/src/stm32f0xx_cec.c ****                CEC_ITConfig() must be called before enabling the CEC peripheral.
  57:Drivers/STM32F0xx_StdPeriph_Driver/src/stm32f0xx_cec.c ****            (#) Enable the CEC using the CEC_Cmd() function.
  58:Drivers/STM32F0xx_StdPeriph_Driver/src/stm32f0xx_cec.c ****            (#) Charge the first data byte in the TXDR register using CEC_SendDataByte().
  59:Drivers/STM32F0xx_StdPeriph_Driver/src/stm32f0xx_cec.c ****            (#) Enable the transmission of the Byte of a CEC message using CEC_StartOfMessage() 
  60:Drivers/STM32F0xx_StdPeriph_Driver/src/stm32f0xx_cec.c ****            (#) Transmit single data through the CEC peripheral using CEC_SendDataByte() 
  61:Drivers/STM32F0xx_StdPeriph_Driver/src/stm32f0xx_cec.c ****                and Receive the last transmitted byte using CEC_ReceiveDataByte().
  62:Drivers/STM32F0xx_StdPeriph_Driver/src/stm32f0xx_cec.c ****            (#) Enable the CEC_EndOfMessage() in order to indicate the last byte of the message.
  63:Drivers/STM32F0xx_StdPeriph_Driver/src/stm32f0xx_cec.c ****       [..]
  64:Drivers/STM32F0xx_StdPeriph_Driver/src/stm32f0xx_cec.c ****            (@) If the listen mode is enabled, Stop reception generation and Bit error generation 
  65:Drivers/STM32F0xx_StdPeriph_Driver/src/stm32f0xx_cec.c ****                must be in reset state.
  66:Drivers/STM32F0xx_StdPeriph_Driver/src/stm32f0xx_cec.c ****            (@) If the CEC message consists of only 1 byte, the function CEC_EndOfMessage()
  67:Drivers/STM32F0xx_StdPeriph_Driver/src/stm32f0xx_cec.c ****                must be called before CEC_StartOfMessage().
  68:Drivers/STM32F0xx_StdPeriph_Driver/src/stm32f0xx_cec.c ****   
  69:Drivers/STM32F0xx_StdPeriph_Driver/src/stm32f0xx_cec.c ****    @endverbatim
  70:Drivers/STM32F0xx_StdPeriph_Driver/src/stm32f0xx_cec.c ****   *
  71:Drivers/STM32F0xx_StdPeriph_Driver/src/stm32f0xx_cec.c ****   ******************************************************************************
  72:Drivers/STM32F0xx_StdPeriph_Driver/src/stm32f0xx_cec.c ****   * @attention
  73:Drivers/STM32F0xx_StdPeriph_Driver/src/stm32f0xx_cec.c ****   *
  74:Drivers/STM32F0xx_StdPeriph_Driver/src/stm32f0xx_cec.c ****   * <h2><center>&copy; COPYRIGHT 2012 STMicroelectronics</center></h2>
  75:Drivers/STM32F0xx_StdPeriph_Driver/src/stm32f0xx_cec.c ****   *
  76:Drivers/STM32F0xx_StdPeriph_Driver/src/stm32f0xx_cec.c ****   * Licensed under MCD-ST Liberty SW License Agreement V2, (the "License");
  77:Drivers/STM32F0xx_StdPeriph_Driver/src/stm32f0xx_cec.c ****   * You may not use this file except in compliance with the License.
  78:Drivers/STM32F0xx_StdPeriph_Driver/src/stm32f0xx_cec.c ****   * You may obtain a copy of the License at:
  79:Drivers/STM32F0xx_StdPeriph_Driver/src/stm32f0xx_cec.c ****   *
  80:Drivers/STM32F0xx_StdPeriph_Driver/src/stm32f0xx_cec.c ****   *        http://www.st.com/software_license_agreement_liberty_v2
  81:Drivers/STM32F0xx_StdPeriph_Driver/src/stm32f0xx_cec.c ****   *
  82:Drivers/STM32F0xx_StdPeriph_Driver/src/stm32f0xx_cec.c ****   * Unless required by applicable law or agreed to in writing, software 
  83:Drivers/STM32F0xx_StdPeriph_Driver/src/stm32f0xx_cec.c ****   * distributed under the License is distributed on an "AS IS" BASIS, 
  84:Drivers/STM32F0xx_StdPeriph_Driver/src/stm32f0xx_cec.c ****   * WITHOUT WARRANTIES OR CONDITIONS OF ANY KIND, either express or implied.
  85:Drivers/STM32F0xx_StdPeriph_Driver/src/stm32f0xx_cec.c ****   * See the License for the specific language governing permissions and
  86:Drivers/STM32F0xx_StdPeriph_Driver/src/stm32f0xx_cec.c ****   * limitations under the License.
  87:Drivers/STM32F0xx_StdPeriph_Driver/src/stm32f0xx_cec.c ****   *
  88:Drivers/STM32F0xx_StdPeriph_Driver/src/stm32f0xx_cec.c ****   ******************************************************************************
  89:Drivers/STM32F0xx_StdPeriph_Driver/src/stm32f0xx_cec.c ****   */
ARM GAS  /tmp/ccJwJrKF.s 			page 3


  90:Drivers/STM32F0xx_StdPeriph_Driver/src/stm32f0xx_cec.c **** 
  91:Drivers/STM32F0xx_StdPeriph_Driver/src/stm32f0xx_cec.c **** /* Includes ------------------------------------------------------------------*/
  92:Drivers/STM32F0xx_StdPeriph_Driver/src/stm32f0xx_cec.c **** #include "stm32f0xx_cec.h"
  93:Drivers/STM32F0xx_StdPeriph_Driver/src/stm32f0xx_cec.c **** #include "stm32f0xx_rcc.h"
  94:Drivers/STM32F0xx_StdPeriph_Driver/src/stm32f0xx_cec.c **** 
  95:Drivers/STM32F0xx_StdPeriph_Driver/src/stm32f0xx_cec.c **** /** @addtogroup STM32F0xx_StdPeriph_Driver
  96:Drivers/STM32F0xx_StdPeriph_Driver/src/stm32f0xx_cec.c ****   * @{
  97:Drivers/STM32F0xx_StdPeriph_Driver/src/stm32f0xx_cec.c ****   */
  98:Drivers/STM32F0xx_StdPeriph_Driver/src/stm32f0xx_cec.c **** 
  99:Drivers/STM32F0xx_StdPeriph_Driver/src/stm32f0xx_cec.c **** /** @defgroup CEC 
 100:Drivers/STM32F0xx_StdPeriph_Driver/src/stm32f0xx_cec.c ****   * @brief CEC driver modules
 101:Drivers/STM32F0xx_StdPeriph_Driver/src/stm32f0xx_cec.c ****   * @{
 102:Drivers/STM32F0xx_StdPeriph_Driver/src/stm32f0xx_cec.c ****   */
 103:Drivers/STM32F0xx_StdPeriph_Driver/src/stm32f0xx_cec.c **** 
 104:Drivers/STM32F0xx_StdPeriph_Driver/src/stm32f0xx_cec.c **** /* Private typedef -----------------------------------------------------------*/
 105:Drivers/STM32F0xx_StdPeriph_Driver/src/stm32f0xx_cec.c **** /* Private define ------------------------------------------------------------*/
 106:Drivers/STM32F0xx_StdPeriph_Driver/src/stm32f0xx_cec.c **** #define BROADCAST_ADDRESS      ((uint32_t)0x0000F)
 107:Drivers/STM32F0xx_StdPeriph_Driver/src/stm32f0xx_cec.c **** #define CFGR_CLEAR_MASK        ((uint32_t)0x7000FE00)   /* CFGR register Mask */
 108:Drivers/STM32F0xx_StdPeriph_Driver/src/stm32f0xx_cec.c **** 
 109:Drivers/STM32F0xx_StdPeriph_Driver/src/stm32f0xx_cec.c **** /* Private macro -------------------------------------------------------------*/
 110:Drivers/STM32F0xx_StdPeriph_Driver/src/stm32f0xx_cec.c **** /* Private variables ---------------------------------------------------------*/
 111:Drivers/STM32F0xx_StdPeriph_Driver/src/stm32f0xx_cec.c **** /* Private function prototypes -----------------------------------------------*/
 112:Drivers/STM32F0xx_StdPeriph_Driver/src/stm32f0xx_cec.c **** /* Private functions ---------------------------------------------------------*/
 113:Drivers/STM32F0xx_StdPeriph_Driver/src/stm32f0xx_cec.c **** 
 114:Drivers/STM32F0xx_StdPeriph_Driver/src/stm32f0xx_cec.c **** /** @defgroup CEC_Private_Functions 
 115:Drivers/STM32F0xx_StdPeriph_Driver/src/stm32f0xx_cec.c ****   * @{
 116:Drivers/STM32F0xx_StdPeriph_Driver/src/stm32f0xx_cec.c ****   */
 117:Drivers/STM32F0xx_StdPeriph_Driver/src/stm32f0xx_cec.c **** 
 118:Drivers/STM32F0xx_StdPeriph_Driver/src/stm32f0xx_cec.c **** /** @defgroup CEC_Group1 Initialization and Configuration functions
 119:Drivers/STM32F0xx_StdPeriph_Driver/src/stm32f0xx_cec.c ****  *  @brief   Initialization and Configuration functions
 120:Drivers/STM32F0xx_StdPeriph_Driver/src/stm32f0xx_cec.c ****  *
 121:Drivers/STM32F0xx_StdPeriph_Driver/src/stm32f0xx_cec.c **** @verbatim  
 122:Drivers/STM32F0xx_StdPeriph_Driver/src/stm32f0xx_cec.c ****  ===============================================================================
 123:Drivers/STM32F0xx_StdPeriph_Driver/src/stm32f0xx_cec.c ****                             ##### Initialization and Configuration functions #####
 124:Drivers/STM32F0xx_StdPeriph_Driver/src/stm32f0xx_cec.c ****  ===============================================================================
 125:Drivers/STM32F0xx_StdPeriph_Driver/src/stm32f0xx_cec.c ****       [..] This section provides functions allowing to initialize:
 126:Drivers/STM32F0xx_StdPeriph_Driver/src/stm32f0xx_cec.c ****             (+) CEC own addresses
 127:Drivers/STM32F0xx_StdPeriph_Driver/src/stm32f0xx_cec.c ****             (+) CEC Signal Free Time
 128:Drivers/STM32F0xx_StdPeriph_Driver/src/stm32f0xx_cec.c ****             (+) CEC Rx Tolerance
 129:Drivers/STM32F0xx_StdPeriph_Driver/src/stm32f0xx_cec.c ****             (+) CEC Stop Reception
 130:Drivers/STM32F0xx_StdPeriph_Driver/src/stm32f0xx_cec.c ****             (+) CEC Bit Rising Error
 131:Drivers/STM32F0xx_StdPeriph_Driver/src/stm32f0xx_cec.c ****             (+) CEC Long Bit Period Error
 132:Drivers/STM32F0xx_StdPeriph_Driver/src/stm32f0xx_cec.c ****       [..] This section provides also a function to configure the CEC peripheral in Listen Mode.
 133:Drivers/STM32F0xx_StdPeriph_Driver/src/stm32f0xx_cec.c ****            Messages addressed to different destination can be received when Listen mode is 
 134:Drivers/STM32F0xx_StdPeriph_Driver/src/stm32f0xx_cec.c ****            enabled without interfering with CEC bus.
 135:Drivers/STM32F0xx_StdPeriph_Driver/src/stm32f0xx_cec.c **** @endverbatim
 136:Drivers/STM32F0xx_StdPeriph_Driver/src/stm32f0xx_cec.c ****   * @{
 137:Drivers/STM32F0xx_StdPeriph_Driver/src/stm32f0xx_cec.c ****   */
 138:Drivers/STM32F0xx_StdPeriph_Driver/src/stm32f0xx_cec.c **** 
 139:Drivers/STM32F0xx_StdPeriph_Driver/src/stm32f0xx_cec.c **** /**
 140:Drivers/STM32F0xx_StdPeriph_Driver/src/stm32f0xx_cec.c ****   * @brief  Deinitializes the CEC peripheral registers to their default reset values.
 141:Drivers/STM32F0xx_StdPeriph_Driver/src/stm32f0xx_cec.c ****   * @param  None
 142:Drivers/STM32F0xx_StdPeriph_Driver/src/stm32f0xx_cec.c ****   * @retval None
 143:Drivers/STM32F0xx_StdPeriph_Driver/src/stm32f0xx_cec.c ****   */
 144:Drivers/STM32F0xx_StdPeriph_Driver/src/stm32f0xx_cec.c **** void CEC_DeInit(void)
 145:Drivers/STM32F0xx_StdPeriph_Driver/src/stm32f0xx_cec.c **** {
  27              		.loc 1 145 1 view -0
ARM GAS  /tmp/ccJwJrKF.s 			page 4


  28              		.cfi_startproc
  29              		@ args = 0, pretend = 0, frame = 0
  30              		@ frame_needed = 0, uses_anonymous_args = 0
  31 0000 10B5     		push	{r4, lr}
  32              	.LCFI0:
  33              		.cfi_def_cfa_offset 8
  34              		.cfi_offset 4, -8
  35              		.cfi_offset 14, -4
 146:Drivers/STM32F0xx_StdPeriph_Driver/src/stm32f0xx_cec.c ****   RCC_APB1PeriphResetCmd(RCC_APB1Periph_CEC, ENABLE);
  36              		.loc 1 146 3 view .LVU1
  37 0002 8024     		movs	r4, #128
  38 0004 E405     		lsls	r4, r4, #23
  39 0006 0121     		movs	r1, #1
  40 0008 2000     		movs	r0, r4
  41 000a FFF7FEFF 		bl	RCC_APB1PeriphResetCmd
  42              	.LVL0:
 147:Drivers/STM32F0xx_StdPeriph_Driver/src/stm32f0xx_cec.c ****   RCC_APB1PeriphResetCmd(RCC_APB1Periph_CEC, DISABLE);
  43              		.loc 1 147 3 view .LVU2
  44 000e 0021     		movs	r1, #0
  45 0010 2000     		movs	r0, r4
  46 0012 FFF7FEFF 		bl	RCC_APB1PeriphResetCmd
  47              	.LVL1:
 148:Drivers/STM32F0xx_StdPeriph_Driver/src/stm32f0xx_cec.c **** }
  48              		.loc 1 148 1 is_stmt 0 view .LVU3
  49              		@ sp needed
  50 0016 10BD     		pop	{r4, pc}
  51              		.cfi_endproc
  52              	.LFE40:
  54              		.section	.text.CEC_Init,"ax",%progbits
  55              		.align	1
  56              		.global	CEC_Init
  57              		.syntax unified
  58              		.code	16
  59              		.thumb_func
  60              		.fpu softvfp
  62              	CEC_Init:
  63              	.LVL2:
  64              	.LFB41:
 149:Drivers/STM32F0xx_StdPeriph_Driver/src/stm32f0xx_cec.c **** 
 150:Drivers/STM32F0xx_StdPeriph_Driver/src/stm32f0xx_cec.c **** /**
 151:Drivers/STM32F0xx_StdPeriph_Driver/src/stm32f0xx_cec.c ****   * @brief  Initializes the CEC peripheral according to the specified parameters
 152:Drivers/STM32F0xx_StdPeriph_Driver/src/stm32f0xx_cec.c ****   *         in the CEC_InitStruct.
 153:Drivers/STM32F0xx_StdPeriph_Driver/src/stm32f0xx_cec.c ****   * @note   The CEC parameters must be configured before enabling the CEC peripheral.
 154:Drivers/STM32F0xx_StdPeriph_Driver/src/stm32f0xx_cec.c ****   * @param  CEC_InitStruct: pointer to an CEC_InitTypeDef structure that contains
 155:Drivers/STM32F0xx_StdPeriph_Driver/src/stm32f0xx_cec.c ****   *         the configuration information for the specified CEC peripheral.
 156:Drivers/STM32F0xx_StdPeriph_Driver/src/stm32f0xx_cec.c ****   * @retval None
 157:Drivers/STM32F0xx_StdPeriph_Driver/src/stm32f0xx_cec.c ****   */
 158:Drivers/STM32F0xx_StdPeriph_Driver/src/stm32f0xx_cec.c **** void CEC_Init(CEC_InitTypeDef* CEC_InitStruct)
 159:Drivers/STM32F0xx_StdPeriph_Driver/src/stm32f0xx_cec.c **** {
  65              		.loc 1 159 1 is_stmt 1 view -0
  66              		.cfi_startproc
  67              		@ args = 0, pretend = 0, frame = 0
  68              		@ frame_needed = 0, uses_anonymous_args = 0
  69              		.loc 1 159 1 is_stmt 0 view .LVU5
  70 0000 10B5     		push	{r4, lr}
  71              	.LCFI1:
  72              		.cfi_def_cfa_offset 8
ARM GAS  /tmp/ccJwJrKF.s 			page 5


  73              		.cfi_offset 4, -8
  74              		.cfi_offset 14, -4
 160:Drivers/STM32F0xx_StdPeriph_Driver/src/stm32f0xx_cec.c ****   uint32_t tmpreg = 0;
  75              		.loc 1 160 3 is_stmt 1 view .LVU6
  76              	.LVL3:
 161:Drivers/STM32F0xx_StdPeriph_Driver/src/stm32f0xx_cec.c **** 
 162:Drivers/STM32F0xx_StdPeriph_Driver/src/stm32f0xx_cec.c ****   /* Check the parameters */
 163:Drivers/STM32F0xx_StdPeriph_Driver/src/stm32f0xx_cec.c ****   assert_param(IS_CEC_SIGNAL_FREE_TIME(CEC_InitStruct->CEC_SignalFreeTime));
  77              		.loc 1 163 3 view .LVU7
 164:Drivers/STM32F0xx_StdPeriph_Driver/src/stm32f0xx_cec.c ****   assert_param(IS_CEC_RX_TOLERANCE(CEC_InitStruct->CEC_RxTolerance));
  78              		.loc 1 164 3 view .LVU8
 165:Drivers/STM32F0xx_StdPeriph_Driver/src/stm32f0xx_cec.c ****   assert_param(IS_CEC_STOP_RECEPTION(CEC_InitStruct->CEC_StopReception));
  79              		.loc 1 165 3 view .LVU9
 166:Drivers/STM32F0xx_StdPeriph_Driver/src/stm32f0xx_cec.c ****   assert_param(IS_CEC_BIT_RISING_ERROR(CEC_InitStruct->CEC_BitRisingError));
  80              		.loc 1 166 3 view .LVU10
 167:Drivers/STM32F0xx_StdPeriph_Driver/src/stm32f0xx_cec.c ****   assert_param(IS_CEC_LONG_BIT_PERIOD_ERROR(CEC_InitStruct->CEC_LongBitPeriodError));
  81              		.loc 1 167 3 view .LVU11
 168:Drivers/STM32F0xx_StdPeriph_Driver/src/stm32f0xx_cec.c ****   assert_param(IS_CEC_BDR_NO_GEN_ERROR(CEC_InitStruct->CEC_BRDNoGen));
  82              		.loc 1 168 3 view .LVU12
 169:Drivers/STM32F0xx_StdPeriph_Driver/src/stm32f0xx_cec.c ****   assert_param(IS_CEC_SFT_OPTION(CEC_InitStruct->CEC_SFTOption));
  83              		.loc 1 169 3 view .LVU13
 170:Drivers/STM32F0xx_StdPeriph_Driver/src/stm32f0xx_cec.c **** 
 171:Drivers/STM32F0xx_StdPeriph_Driver/src/stm32f0xx_cec.c ****   /* Get the CEC CFGR value */
 172:Drivers/STM32F0xx_StdPeriph_Driver/src/stm32f0xx_cec.c ****   tmpreg = CEC->CFGR;
  84              		.loc 1 172 3 view .LVU14
  85              		.loc 1 172 10 is_stmt 0 view .LVU15
  86 0002 0A49     		ldr	r1, .L3
  87 0004 4B68     		ldr	r3, [r1, #4]
  88              	.LVL4:
 173:Drivers/STM32F0xx_StdPeriph_Driver/src/stm32f0xx_cec.c **** 
 174:Drivers/STM32F0xx_StdPeriph_Driver/src/stm32f0xx_cec.c ****   /* Clear CFGR bits */
 175:Drivers/STM32F0xx_StdPeriph_Driver/src/stm32f0xx_cec.c ****   tmpreg &= CFGR_CLEAR_MASK;
  89              		.loc 1 175 3 is_stmt 1 view .LVU16
  90              		.loc 1 175 10 is_stmt 0 view .LVU17
  91 0006 0A4A     		ldr	r2, .L3+4
  92 0008 1A40     		ands	r2, r3
  93              	.LVL5:
 176:Drivers/STM32F0xx_StdPeriph_Driver/src/stm32f0xx_cec.c **** 
 177:Drivers/STM32F0xx_StdPeriph_Driver/src/stm32f0xx_cec.c ****   /* Configure the CEC peripheral */
 178:Drivers/STM32F0xx_StdPeriph_Driver/src/stm32f0xx_cec.c ****   tmpreg |= (CEC_InitStruct->CEC_SignalFreeTime | CEC_InitStruct->CEC_RxTolerance |
  94              		.loc 1 178 3 is_stmt 1 view .LVU18
  95              		.loc 1 178 49 is_stmt 0 view .LVU19
  96 000a 0368     		ldr	r3, [r0]
  97 000c 4468     		ldr	r4, [r0, #4]
  98 000e 2343     		orrs	r3, r4
  99              		.loc 1 178 83 view .LVU20
 100 0010 8468     		ldr	r4, [r0, #8]
 101 0012 2343     		orrs	r3, r4
 179:Drivers/STM32F0xx_StdPeriph_Driver/src/stm32f0xx_cec.c ****              CEC_InitStruct->CEC_StopReception  | CEC_InitStruct->CEC_BitRisingError |
 102              		.loc 1 179 49 view .LVU21
 103 0014 C468     		ldr	r4, [r0, #12]
 104 0016 2343     		orrs	r3, r4
 105              		.loc 1 179 86 view .LVU22
 106 0018 0469     		ldr	r4, [r0, #16]
 107 001a 2343     		orrs	r3, r4
 180:Drivers/STM32F0xx_StdPeriph_Driver/src/stm32f0xx_cec.c ****              CEC_InitStruct->CEC_LongBitPeriodError| CEC_InitStruct->CEC_BRDNoGen |
 108              		.loc 1 180 52 view .LVU23
ARM GAS  /tmp/ccJwJrKF.s 			page 6


 109 001c 4469     		ldr	r4, [r0, #20]
 110 001e 2343     		orrs	r3, r4
 181:Drivers/STM32F0xx_StdPeriph_Driver/src/stm32f0xx_cec.c ****              CEC_InitStruct->CEC_SFTOption);
 111              		.loc 1 181 28 view .LVU24
 112 0020 8069     		ldr	r0, [r0, #24]
 113              	.LVL6:
 180:Drivers/STM32F0xx_StdPeriph_Driver/src/stm32f0xx_cec.c ****              CEC_InitStruct->CEC_LongBitPeriodError| CEC_InitStruct->CEC_BRDNoGen |
 114              		.loc 1 180 83 view .LVU25
 115 0022 0343     		orrs	r3, r0
 178:Drivers/STM32F0xx_StdPeriph_Driver/src/stm32f0xx_cec.c ****              CEC_InitStruct->CEC_StopReception  | CEC_InitStruct->CEC_BitRisingError |
 116              		.loc 1 178 10 view .LVU26
 117 0024 1343     		orrs	r3, r2
 118              	.LVL7:
 182:Drivers/STM32F0xx_StdPeriph_Driver/src/stm32f0xx_cec.c **** 
 183:Drivers/STM32F0xx_StdPeriph_Driver/src/stm32f0xx_cec.c ****   /* Write to CEC CFGR  register */
 184:Drivers/STM32F0xx_StdPeriph_Driver/src/stm32f0xx_cec.c ****   CEC->CFGR = tmpreg;
 119              		.loc 1 184 3 is_stmt 1 view .LVU27
 120              		.loc 1 184 13 is_stmt 0 view .LVU28
 121 0026 4B60     		str	r3, [r1, #4]
 185:Drivers/STM32F0xx_StdPeriph_Driver/src/stm32f0xx_cec.c **** }
 122              		.loc 1 185 1 view .LVU29
 123              		@ sp needed
 124 0028 10BD     		pop	{r4, pc}
 125              	.L4:
 126 002a C046     		.align	2
 127              	.L3:
 128 002c 00780040 		.word	1073772544
 129 0030 00FE0070 		.word	1879113216
 130              		.cfi_endproc
 131              	.LFE41:
 133              		.section	.text.CEC_StructInit,"ax",%progbits
 134              		.align	1
 135              		.global	CEC_StructInit
 136              		.syntax unified
 137              		.code	16
 138              		.thumb_func
 139              		.fpu softvfp
 141              	CEC_StructInit:
 142              	.LVL8:
 143              	.LFB42:
 186:Drivers/STM32F0xx_StdPeriph_Driver/src/stm32f0xx_cec.c **** 
 187:Drivers/STM32F0xx_StdPeriph_Driver/src/stm32f0xx_cec.c **** /**
 188:Drivers/STM32F0xx_StdPeriph_Driver/src/stm32f0xx_cec.c ****   * @brief  Fills each CEC_InitStruct member with its default value.
 189:Drivers/STM32F0xx_StdPeriph_Driver/src/stm32f0xx_cec.c ****   * @param  CEC_InitStruct: pointer to a CEC_InitTypeDef structure which will 
 190:Drivers/STM32F0xx_StdPeriph_Driver/src/stm32f0xx_cec.c ****   *         be initialized.
 191:Drivers/STM32F0xx_StdPeriph_Driver/src/stm32f0xx_cec.c ****   * @retval None
 192:Drivers/STM32F0xx_StdPeriph_Driver/src/stm32f0xx_cec.c ****   */
 193:Drivers/STM32F0xx_StdPeriph_Driver/src/stm32f0xx_cec.c **** void CEC_StructInit(CEC_InitTypeDef* CEC_InitStruct)
 194:Drivers/STM32F0xx_StdPeriph_Driver/src/stm32f0xx_cec.c **** {
 144              		.loc 1 194 1 is_stmt 1 view -0
 145              		.cfi_startproc
 146              		@ args = 0, pretend = 0, frame = 0
 147              		@ frame_needed = 0, uses_anonymous_args = 0
 148              		@ link register save eliminated.
 195:Drivers/STM32F0xx_StdPeriph_Driver/src/stm32f0xx_cec.c ****   CEC_InitStruct->CEC_SignalFreeTime = CEC_SignalFreeTime_Standard;
 149              		.loc 1 195 3 view .LVU31
 150              		.loc 1 195 38 is_stmt 0 view .LVU32
ARM GAS  /tmp/ccJwJrKF.s 			page 7


 151 0000 0023     		movs	r3, #0
 152 0002 0360     		str	r3, [r0]
 196:Drivers/STM32F0xx_StdPeriph_Driver/src/stm32f0xx_cec.c ****   CEC_InitStruct->CEC_RxTolerance = CEC_RxTolerance_Standard;
 153              		.loc 1 196 3 is_stmt 1 view .LVU33
 154              		.loc 1 196 35 is_stmt 0 view .LVU34
 155 0004 4360     		str	r3, [r0, #4]
 197:Drivers/STM32F0xx_StdPeriph_Driver/src/stm32f0xx_cec.c ****   CEC_InitStruct->CEC_StopReception = CEC_StopReception_Off;
 156              		.loc 1 197 3 is_stmt 1 view .LVU35
 157              		.loc 1 197 37 is_stmt 0 view .LVU36
 158 0006 8360     		str	r3, [r0, #8]
 198:Drivers/STM32F0xx_StdPeriph_Driver/src/stm32f0xx_cec.c ****   CEC_InitStruct->CEC_BitRisingError = CEC_BitRisingError_Off;
 159              		.loc 1 198 3 is_stmt 1 view .LVU37
 160              		.loc 1 198 38 is_stmt 0 view .LVU38
 161 0008 C360     		str	r3, [r0, #12]
 199:Drivers/STM32F0xx_StdPeriph_Driver/src/stm32f0xx_cec.c ****   CEC_InitStruct->CEC_LongBitPeriodError = CEC_LongBitPeriodError_Off;
 162              		.loc 1 199 3 is_stmt 1 view .LVU39
 163              		.loc 1 199 42 is_stmt 0 view .LVU40
 164 000a 0361     		str	r3, [r0, #16]
 200:Drivers/STM32F0xx_StdPeriph_Driver/src/stm32f0xx_cec.c ****   CEC_InitStruct->CEC_BRDNoGen = CEC_BRDNoGen_Off;
 165              		.loc 1 200 3 is_stmt 1 view .LVU41
 166              		.loc 1 200 32 is_stmt 0 view .LVU42
 167 000c 4361     		str	r3, [r0, #20]
 201:Drivers/STM32F0xx_StdPeriph_Driver/src/stm32f0xx_cec.c ****   CEC_InitStruct->CEC_SFTOption = CEC_SFTOption_Off;
 168              		.loc 1 201 3 is_stmt 1 view .LVU43
 169              		.loc 1 201 33 is_stmt 0 view .LVU44
 170 000e 8361     		str	r3, [r0, #24]
 202:Drivers/STM32F0xx_StdPeriph_Driver/src/stm32f0xx_cec.c **** }
 171              		.loc 1 202 1 view .LVU45
 172              		@ sp needed
 173 0010 7047     		bx	lr
 174              		.cfi_endproc
 175              	.LFE42:
 177              		.section	.text.CEC_Cmd,"ax",%progbits
 178              		.align	1
 179              		.global	CEC_Cmd
 180              		.syntax unified
 181              		.code	16
 182              		.thumb_func
 183              		.fpu softvfp
 185              	CEC_Cmd:
 186              	.LVL9:
 187              	.LFB43:
 203:Drivers/STM32F0xx_StdPeriph_Driver/src/stm32f0xx_cec.c **** 
 204:Drivers/STM32F0xx_StdPeriph_Driver/src/stm32f0xx_cec.c **** /**
 205:Drivers/STM32F0xx_StdPeriph_Driver/src/stm32f0xx_cec.c ****   * @brief  Enables or disables the CEC peripheral.
 206:Drivers/STM32F0xx_StdPeriph_Driver/src/stm32f0xx_cec.c ****   * @param  NewState: new state of the CEC peripheral.
 207:Drivers/STM32F0xx_StdPeriph_Driver/src/stm32f0xx_cec.c ****   *         This parameter can be: ENABLE or DISABLE.
 208:Drivers/STM32F0xx_StdPeriph_Driver/src/stm32f0xx_cec.c ****   * @retval None
 209:Drivers/STM32F0xx_StdPeriph_Driver/src/stm32f0xx_cec.c ****   */
 210:Drivers/STM32F0xx_StdPeriph_Driver/src/stm32f0xx_cec.c **** void CEC_Cmd(FunctionalState NewState)
 211:Drivers/STM32F0xx_StdPeriph_Driver/src/stm32f0xx_cec.c **** {
 188              		.loc 1 211 1 is_stmt 1 view -0
 189              		.cfi_startproc
 190              		@ args = 0, pretend = 0, frame = 0
 191              		@ frame_needed = 0, uses_anonymous_args = 0
 192              		@ link register save eliminated.
 212:Drivers/STM32F0xx_StdPeriph_Driver/src/stm32f0xx_cec.c ****   assert_param(IS_FUNCTIONAL_STATE(NewState));
ARM GAS  /tmp/ccJwJrKF.s 			page 8


 193              		.loc 1 212 3 view .LVU47
 213:Drivers/STM32F0xx_StdPeriph_Driver/src/stm32f0xx_cec.c **** 
 214:Drivers/STM32F0xx_StdPeriph_Driver/src/stm32f0xx_cec.c ****   if (NewState != DISABLE)
 194              		.loc 1 214 3 view .LVU48
 195              		.loc 1 214 6 is_stmt 0 view .LVU49
 196 0000 0028     		cmp	r0, #0
 197 0002 05D0     		beq	.L7
 215:Drivers/STM32F0xx_StdPeriph_Driver/src/stm32f0xx_cec.c ****   {
 216:Drivers/STM32F0xx_StdPeriph_Driver/src/stm32f0xx_cec.c ****     /* Enable the CEC peripheral */
 217:Drivers/STM32F0xx_StdPeriph_Driver/src/stm32f0xx_cec.c ****     CEC->CR |= CEC_CR_CECEN;
 198              		.loc 1 217 5 is_stmt 1 view .LVU50
 199              		.loc 1 217 13 is_stmt 0 view .LVU51
 200 0004 054A     		ldr	r2, .L9
 201 0006 1368     		ldr	r3, [r2]
 202 0008 0121     		movs	r1, #1
 203 000a 0B43     		orrs	r3, r1
 204 000c 1360     		str	r3, [r2]
 205              	.L6:
 218:Drivers/STM32F0xx_StdPeriph_Driver/src/stm32f0xx_cec.c ****   }
 219:Drivers/STM32F0xx_StdPeriph_Driver/src/stm32f0xx_cec.c ****   else
 220:Drivers/STM32F0xx_StdPeriph_Driver/src/stm32f0xx_cec.c ****   {
 221:Drivers/STM32F0xx_StdPeriph_Driver/src/stm32f0xx_cec.c ****     /* Disable the CEC peripheral */
 222:Drivers/STM32F0xx_StdPeriph_Driver/src/stm32f0xx_cec.c ****     CEC->CR &= ~CEC_CR_CECEN;
 223:Drivers/STM32F0xx_StdPeriph_Driver/src/stm32f0xx_cec.c ****   }
 224:Drivers/STM32F0xx_StdPeriph_Driver/src/stm32f0xx_cec.c **** }
 206              		.loc 1 224 1 view .LVU52
 207              		@ sp needed
 208 000e 7047     		bx	lr
 209              	.L7:
 222:Drivers/STM32F0xx_StdPeriph_Driver/src/stm32f0xx_cec.c ****   }
 210              		.loc 1 222 5 is_stmt 1 view .LVU53
 222:Drivers/STM32F0xx_StdPeriph_Driver/src/stm32f0xx_cec.c ****   }
 211              		.loc 1 222 13 is_stmt 0 view .LVU54
 212 0010 024A     		ldr	r2, .L9
 213 0012 1368     		ldr	r3, [r2]
 214 0014 0121     		movs	r1, #1
 215 0016 8B43     		bics	r3, r1
 216 0018 1360     		str	r3, [r2]
 217              		.loc 1 224 1 view .LVU55
 218 001a F8E7     		b	.L6
 219              	.L10:
 220              		.align	2
 221              	.L9:
 222 001c 00780040 		.word	1073772544
 223              		.cfi_endproc
 224              	.LFE43:
 226              		.section	.text.CEC_ListenModeCmd,"ax",%progbits
 227              		.align	1
 228              		.global	CEC_ListenModeCmd
 229              		.syntax unified
 230              		.code	16
 231              		.thumb_func
 232              		.fpu softvfp
 234              	CEC_ListenModeCmd:
 235              	.LVL10:
 236              	.LFB44:
 225:Drivers/STM32F0xx_StdPeriph_Driver/src/stm32f0xx_cec.c **** 
ARM GAS  /tmp/ccJwJrKF.s 			page 9


 226:Drivers/STM32F0xx_StdPeriph_Driver/src/stm32f0xx_cec.c **** /**
 227:Drivers/STM32F0xx_StdPeriph_Driver/src/stm32f0xx_cec.c ****   * @brief  Enables or disables the CEC Listen Mode.
 228:Drivers/STM32F0xx_StdPeriph_Driver/src/stm32f0xx_cec.c ****   * @param  NewState: new state of the Listen Mode.
 229:Drivers/STM32F0xx_StdPeriph_Driver/src/stm32f0xx_cec.c ****   *         This parameter can be: ENABLE or DISABLE.
 230:Drivers/STM32F0xx_StdPeriph_Driver/src/stm32f0xx_cec.c ****   * @retval None
 231:Drivers/STM32F0xx_StdPeriph_Driver/src/stm32f0xx_cec.c ****   */
 232:Drivers/STM32F0xx_StdPeriph_Driver/src/stm32f0xx_cec.c **** void CEC_ListenModeCmd(FunctionalState NewState)
 233:Drivers/STM32F0xx_StdPeriph_Driver/src/stm32f0xx_cec.c **** {
 237              		.loc 1 233 1 is_stmt 1 view -0
 238              		.cfi_startproc
 239              		@ args = 0, pretend = 0, frame = 0
 240              		@ frame_needed = 0, uses_anonymous_args = 0
 241              		@ link register save eliminated.
 234:Drivers/STM32F0xx_StdPeriph_Driver/src/stm32f0xx_cec.c ****   assert_param(IS_FUNCTIONAL_STATE(NewState));
 242              		.loc 1 234 3 view .LVU57
 235:Drivers/STM32F0xx_StdPeriph_Driver/src/stm32f0xx_cec.c **** 
 236:Drivers/STM32F0xx_StdPeriph_Driver/src/stm32f0xx_cec.c ****   if (NewState != DISABLE)
 243              		.loc 1 236 3 view .LVU58
 244              		.loc 1 236 6 is_stmt 0 view .LVU59
 245 0000 0028     		cmp	r0, #0
 246 0002 06D0     		beq	.L12
 237:Drivers/STM32F0xx_StdPeriph_Driver/src/stm32f0xx_cec.c ****   {
 238:Drivers/STM32F0xx_StdPeriph_Driver/src/stm32f0xx_cec.c ****     /* Enable the Listen Mode */
 239:Drivers/STM32F0xx_StdPeriph_Driver/src/stm32f0xx_cec.c ****     CEC->CFGR |= CEC_CFGR_LSTN;
 247              		.loc 1 239 5 is_stmt 1 view .LVU60
 248              		.loc 1 239 15 is_stmt 0 view .LVU61
 249 0004 064A     		ldr	r2, .L14
 250 0006 5168     		ldr	r1, [r2, #4]
 251 0008 8023     		movs	r3, #128
 252 000a 1B06     		lsls	r3, r3, #24
 253 000c 0B43     		orrs	r3, r1
 254 000e 5360     		str	r3, [r2, #4]
 255              	.L11:
 240:Drivers/STM32F0xx_StdPeriph_Driver/src/stm32f0xx_cec.c ****   }
 241:Drivers/STM32F0xx_StdPeriph_Driver/src/stm32f0xx_cec.c ****   else
 242:Drivers/STM32F0xx_StdPeriph_Driver/src/stm32f0xx_cec.c ****   {
 243:Drivers/STM32F0xx_StdPeriph_Driver/src/stm32f0xx_cec.c ****     /* Disable the Listen Mode */
 244:Drivers/STM32F0xx_StdPeriph_Driver/src/stm32f0xx_cec.c ****     CEC->CFGR &= ~CEC_CFGR_LSTN;
 245:Drivers/STM32F0xx_StdPeriph_Driver/src/stm32f0xx_cec.c ****   }
 246:Drivers/STM32F0xx_StdPeriph_Driver/src/stm32f0xx_cec.c **** }
 256              		.loc 1 246 1 view .LVU62
 257              		@ sp needed
 258 0010 7047     		bx	lr
 259              	.L12:
 244:Drivers/STM32F0xx_StdPeriph_Driver/src/stm32f0xx_cec.c ****   }
 260              		.loc 1 244 5 is_stmt 1 view .LVU63
 244:Drivers/STM32F0xx_StdPeriph_Driver/src/stm32f0xx_cec.c ****   }
 261              		.loc 1 244 15 is_stmt 0 view .LVU64
 262 0012 034A     		ldr	r2, .L14
 263 0014 5368     		ldr	r3, [r2, #4]
 264 0016 5B00     		lsls	r3, r3, #1
 265 0018 5B08     		lsrs	r3, r3, #1
 266 001a 5360     		str	r3, [r2, #4]
 267              		.loc 1 246 1 view .LVU65
 268 001c F8E7     		b	.L11
 269              	.L15:
 270 001e C046     		.align	2
ARM GAS  /tmp/ccJwJrKF.s 			page 10


 271              	.L14:
 272 0020 00780040 		.word	1073772544
 273              		.cfi_endproc
 274              	.LFE44:
 276              		.section	.text.CEC_OwnAddressConfig,"ax",%progbits
 277              		.align	1
 278              		.global	CEC_OwnAddressConfig
 279              		.syntax unified
 280              		.code	16
 281              		.thumb_func
 282              		.fpu softvfp
 284              	CEC_OwnAddressConfig:
 285              	.LVL11:
 286              	.LFB45:
 247:Drivers/STM32F0xx_StdPeriph_Driver/src/stm32f0xx_cec.c **** 
 248:Drivers/STM32F0xx_StdPeriph_Driver/src/stm32f0xx_cec.c **** /**
 249:Drivers/STM32F0xx_StdPeriph_Driver/src/stm32f0xx_cec.c ****   * @brief  Defines the Own Address of the CEC device.
 250:Drivers/STM32F0xx_StdPeriph_Driver/src/stm32f0xx_cec.c ****   * @param  CEC_OwnAddress: The CEC own address.
 251:Drivers/STM32F0xx_StdPeriph_Driver/src/stm32f0xx_cec.c ****   * @retval None
 252:Drivers/STM32F0xx_StdPeriph_Driver/src/stm32f0xx_cec.c ****   */
 253:Drivers/STM32F0xx_StdPeriph_Driver/src/stm32f0xx_cec.c **** void CEC_OwnAddressConfig(uint8_t CEC_OwnAddress)
 254:Drivers/STM32F0xx_StdPeriph_Driver/src/stm32f0xx_cec.c **** {
 287              		.loc 1 254 1 is_stmt 1 view -0
 288              		.cfi_startproc
 289              		@ args = 0, pretend = 0, frame = 0
 290              		@ frame_needed = 0, uses_anonymous_args = 0
 291              		@ link register save eliminated.
 255:Drivers/STM32F0xx_StdPeriph_Driver/src/stm32f0xx_cec.c ****   uint32_t tmp =0x00;
 292              		.loc 1 255 3 view .LVU67
 256:Drivers/STM32F0xx_StdPeriph_Driver/src/stm32f0xx_cec.c ****   /* Check the parameters */
 257:Drivers/STM32F0xx_StdPeriph_Driver/src/stm32f0xx_cec.c ****   assert_param(IS_CEC_ADDRESS(CEC_OwnAddress));
 293              		.loc 1 257 3 view .LVU68
 258:Drivers/STM32F0xx_StdPeriph_Driver/src/stm32f0xx_cec.c ****   tmp = 1 <<(CEC_OwnAddress + 16);
 294              		.loc 1 258 3 view .LVU69
 295              		.loc 1 258 29 is_stmt 0 view .LVU70
 296 0000 1030     		adds	r0, r0, #16
 297              	.LVL12:
 298              		.loc 1 258 11 view .LVU71
 299 0002 0122     		movs	r2, #1
 300 0004 8240     		lsls	r2, r2, r0
 301              	.LVL13:
 259:Drivers/STM32F0xx_StdPeriph_Driver/src/stm32f0xx_cec.c ****   /* Set the CEC own address */
 260:Drivers/STM32F0xx_StdPeriph_Driver/src/stm32f0xx_cec.c ****   CEC->CFGR |= tmp;
 302              		.loc 1 260 3 is_stmt 1 view .LVU72
 303              		.loc 1 260 13 is_stmt 0 view .LVU73
 304 0006 0249     		ldr	r1, .L17
 305 0008 4B68     		ldr	r3, [r1, #4]
 306 000a 1343     		orrs	r3, r2
 307 000c 4B60     		str	r3, [r1, #4]
 261:Drivers/STM32F0xx_StdPeriph_Driver/src/stm32f0xx_cec.c **** }
 308              		.loc 1 261 1 view .LVU74
 309              		@ sp needed
 310 000e 7047     		bx	lr
 311              	.L18:
 312              		.align	2
 313              	.L17:
 314 0010 00780040 		.word	1073772544
ARM GAS  /tmp/ccJwJrKF.s 			page 11


 315              		.cfi_endproc
 316              	.LFE45:
 318              		.section	.text.CEC_OwnAddressClear,"ax",%progbits
 319              		.align	1
 320              		.global	CEC_OwnAddressClear
 321              		.syntax unified
 322              		.code	16
 323              		.thumb_func
 324              		.fpu softvfp
 326              	CEC_OwnAddressClear:
 327              	.LFB46:
 262:Drivers/STM32F0xx_StdPeriph_Driver/src/stm32f0xx_cec.c **** 
 263:Drivers/STM32F0xx_StdPeriph_Driver/src/stm32f0xx_cec.c **** /**
 264:Drivers/STM32F0xx_StdPeriph_Driver/src/stm32f0xx_cec.c ****   * @brief  Clears the Own Address of the CEC device.
 265:Drivers/STM32F0xx_StdPeriph_Driver/src/stm32f0xx_cec.c ****   * @param  CEC_OwnAddress: The CEC own address.
 266:Drivers/STM32F0xx_StdPeriph_Driver/src/stm32f0xx_cec.c ****   * @retval None
 267:Drivers/STM32F0xx_StdPeriph_Driver/src/stm32f0xx_cec.c ****   */
 268:Drivers/STM32F0xx_StdPeriph_Driver/src/stm32f0xx_cec.c **** void CEC_OwnAddressClear(void)
 269:Drivers/STM32F0xx_StdPeriph_Driver/src/stm32f0xx_cec.c **** {
 328              		.loc 1 269 1 is_stmt 1 view -0
 329              		.cfi_startproc
 330              		@ args = 0, pretend = 0, frame = 0
 331              		@ frame_needed = 0, uses_anonymous_args = 0
 332              		@ link register save eliminated.
 270:Drivers/STM32F0xx_StdPeriph_Driver/src/stm32f0xx_cec.c ****   /* Set the CEC own address */
 271:Drivers/STM32F0xx_StdPeriph_Driver/src/stm32f0xx_cec.c ****   CEC->CFGR = 0x0;
 333              		.loc 1 271 3 view .LVU76
 334              		.loc 1 271 13 is_stmt 0 view .LVU77
 335 0000 014B     		ldr	r3, .L20
 336 0002 0022     		movs	r2, #0
 337 0004 5A60     		str	r2, [r3, #4]
 272:Drivers/STM32F0xx_StdPeriph_Driver/src/stm32f0xx_cec.c **** }
 338              		.loc 1 272 1 view .LVU78
 339              		@ sp needed
 340 0006 7047     		bx	lr
 341              	.L21:
 342              		.align	2
 343              	.L20:
 344 0008 00780040 		.word	1073772544
 345              		.cfi_endproc
 346              	.LFE46:
 348              		.section	.text.CEC_SendData,"ax",%progbits
 349              		.align	1
 350              		.global	CEC_SendData
 351              		.syntax unified
 352              		.code	16
 353              		.thumb_func
 354              		.fpu softvfp
 356              	CEC_SendData:
 357              	.LVL14:
 358              	.LFB47:
 273:Drivers/STM32F0xx_StdPeriph_Driver/src/stm32f0xx_cec.c **** 
 274:Drivers/STM32F0xx_StdPeriph_Driver/src/stm32f0xx_cec.c **** /**
 275:Drivers/STM32F0xx_StdPeriph_Driver/src/stm32f0xx_cec.c ****   * @}
 276:Drivers/STM32F0xx_StdPeriph_Driver/src/stm32f0xx_cec.c ****   */
 277:Drivers/STM32F0xx_StdPeriph_Driver/src/stm32f0xx_cec.c **** 
 278:Drivers/STM32F0xx_StdPeriph_Driver/src/stm32f0xx_cec.c **** /** @defgroup CEC_Group2 Data transfers functions
ARM GAS  /tmp/ccJwJrKF.s 			page 12


 279:Drivers/STM32F0xx_StdPeriph_Driver/src/stm32f0xx_cec.c ****  *  @brief    Data transfers functions
 280:Drivers/STM32F0xx_StdPeriph_Driver/src/stm32f0xx_cec.c ****  *
 281:Drivers/STM32F0xx_StdPeriph_Driver/src/stm32f0xx_cec.c **** @verbatim
 282:Drivers/STM32F0xx_StdPeriph_Driver/src/stm32f0xx_cec.c ****  ===============================================================================
 283:Drivers/STM32F0xx_StdPeriph_Driver/src/stm32f0xx_cec.c ****                             ##### Data transfers functions #####
 284:Drivers/STM32F0xx_StdPeriph_Driver/src/stm32f0xx_cec.c ****  ===============================================================================
 285:Drivers/STM32F0xx_StdPeriph_Driver/src/stm32f0xx_cec.c ****     [..] This section provides functions allowing the CEC data transfers.The read 
 286:Drivers/STM32F0xx_StdPeriph_Driver/src/stm32f0xx_cec.c ****          access of the CEC_RXDR register can be done using the CEC_ReceiveData()function 
 287:Drivers/STM32F0xx_StdPeriph_Driver/src/stm32f0xx_cec.c ****          and returns the Rx buffered value. Whereas a write access to the CEC_TXDR can be 
 288:Drivers/STM32F0xx_StdPeriph_Driver/src/stm32f0xx_cec.c ****          done using CEC_SendData() function.
 289:Drivers/STM32F0xx_StdPeriph_Driver/src/stm32f0xx_cec.c **** @endverbatim
 290:Drivers/STM32F0xx_StdPeriph_Driver/src/stm32f0xx_cec.c ****   * @{
 291:Drivers/STM32F0xx_StdPeriph_Driver/src/stm32f0xx_cec.c ****   */
 292:Drivers/STM32F0xx_StdPeriph_Driver/src/stm32f0xx_cec.c **** 
 293:Drivers/STM32F0xx_StdPeriph_Driver/src/stm32f0xx_cec.c **** /**
 294:Drivers/STM32F0xx_StdPeriph_Driver/src/stm32f0xx_cec.c ****   * @brief  Transmits single data through the CEC peripheral.
 295:Drivers/STM32F0xx_StdPeriph_Driver/src/stm32f0xx_cec.c ****   * @param  Data: the data to transmit.
 296:Drivers/STM32F0xx_StdPeriph_Driver/src/stm32f0xx_cec.c ****   * @retval None
 297:Drivers/STM32F0xx_StdPeriph_Driver/src/stm32f0xx_cec.c ****   */
 298:Drivers/STM32F0xx_StdPeriph_Driver/src/stm32f0xx_cec.c **** void CEC_SendData(uint8_t Data)
 299:Drivers/STM32F0xx_StdPeriph_Driver/src/stm32f0xx_cec.c **** {
 359              		.loc 1 299 1 is_stmt 1 view -0
 360              		.cfi_startproc
 361              		@ args = 0, pretend = 0, frame = 0
 362              		@ frame_needed = 0, uses_anonymous_args = 0
 363              		@ link register save eliminated.
 300:Drivers/STM32F0xx_StdPeriph_Driver/src/stm32f0xx_cec.c ****   /* Transmit Data */
 301:Drivers/STM32F0xx_StdPeriph_Driver/src/stm32f0xx_cec.c ****   CEC->TXDR = Data;
 364              		.loc 1 301 3 view .LVU80
 365              		.loc 1 301 13 is_stmt 0 view .LVU81
 366 0000 014B     		ldr	r3, .L23
 367 0002 9860     		str	r0, [r3, #8]
 302:Drivers/STM32F0xx_StdPeriph_Driver/src/stm32f0xx_cec.c **** }
 368              		.loc 1 302 1 view .LVU82
 369              		@ sp needed
 370 0004 7047     		bx	lr
 371              	.L24:
 372 0006 C046     		.align	2
 373              	.L23:
 374 0008 00780040 		.word	1073772544
 375              		.cfi_endproc
 376              	.LFE47:
 378              		.section	.text.CEC_ReceiveData,"ax",%progbits
 379              		.align	1
 380              		.global	CEC_ReceiveData
 381              		.syntax unified
 382              		.code	16
 383              		.thumb_func
 384              		.fpu softvfp
 386              	CEC_ReceiveData:
 387              	.LFB48:
 303:Drivers/STM32F0xx_StdPeriph_Driver/src/stm32f0xx_cec.c **** 
 304:Drivers/STM32F0xx_StdPeriph_Driver/src/stm32f0xx_cec.c **** /**
 305:Drivers/STM32F0xx_StdPeriph_Driver/src/stm32f0xx_cec.c ****   * @brief  Returns the most recent received data by the CEC peripheral.
 306:Drivers/STM32F0xx_StdPeriph_Driver/src/stm32f0xx_cec.c ****   * @param  None
 307:Drivers/STM32F0xx_StdPeriph_Driver/src/stm32f0xx_cec.c ****   * @retval The received data.
 308:Drivers/STM32F0xx_StdPeriph_Driver/src/stm32f0xx_cec.c ****   */
ARM GAS  /tmp/ccJwJrKF.s 			page 13


 309:Drivers/STM32F0xx_StdPeriph_Driver/src/stm32f0xx_cec.c **** uint8_t CEC_ReceiveData(void)
 310:Drivers/STM32F0xx_StdPeriph_Driver/src/stm32f0xx_cec.c **** {
 388              		.loc 1 310 1 is_stmt 1 view -0
 389              		.cfi_startproc
 390              		@ args = 0, pretend = 0, frame = 0
 391              		@ frame_needed = 0, uses_anonymous_args = 0
 392              		@ link register save eliminated.
 311:Drivers/STM32F0xx_StdPeriph_Driver/src/stm32f0xx_cec.c ****   /* Receive Data */
 312:Drivers/STM32F0xx_StdPeriph_Driver/src/stm32f0xx_cec.c ****   return (uint8_t)(CEC->RXDR);
 393              		.loc 1 312 3 view .LVU84
 394              		.loc 1 312 23 is_stmt 0 view .LVU85
 395 0000 014B     		ldr	r3, .L26
 396 0002 D868     		ldr	r0, [r3, #12]
 397              		.loc 1 312 10 view .LVU86
 398 0004 C0B2     		uxtb	r0, r0
 313:Drivers/STM32F0xx_StdPeriph_Driver/src/stm32f0xx_cec.c **** }
 399              		.loc 1 313 1 view .LVU87
 400              		@ sp needed
 401 0006 7047     		bx	lr
 402              	.L27:
 403              		.align	2
 404              	.L26:
 405 0008 00780040 		.word	1073772544
 406              		.cfi_endproc
 407              	.LFE48:
 409              		.section	.text.CEC_StartOfMessage,"ax",%progbits
 410              		.align	1
 411              		.global	CEC_StartOfMessage
 412              		.syntax unified
 413              		.code	16
 414              		.thumb_func
 415              		.fpu softvfp
 417              	CEC_StartOfMessage:
 418              	.LFB49:
 314:Drivers/STM32F0xx_StdPeriph_Driver/src/stm32f0xx_cec.c **** 
 315:Drivers/STM32F0xx_StdPeriph_Driver/src/stm32f0xx_cec.c **** /**
 316:Drivers/STM32F0xx_StdPeriph_Driver/src/stm32f0xx_cec.c ****   * @brief  Starts a new message.
 317:Drivers/STM32F0xx_StdPeriph_Driver/src/stm32f0xx_cec.c ****   * @param  None
 318:Drivers/STM32F0xx_StdPeriph_Driver/src/stm32f0xx_cec.c ****   * @retval None
 319:Drivers/STM32F0xx_StdPeriph_Driver/src/stm32f0xx_cec.c ****   */
 320:Drivers/STM32F0xx_StdPeriph_Driver/src/stm32f0xx_cec.c **** void CEC_StartOfMessage(void)
 321:Drivers/STM32F0xx_StdPeriph_Driver/src/stm32f0xx_cec.c **** {
 419              		.loc 1 321 1 is_stmt 1 view -0
 420              		.cfi_startproc
 421              		@ args = 0, pretend = 0, frame = 0
 422              		@ frame_needed = 0, uses_anonymous_args = 0
 423              		@ link register save eliminated.
 322:Drivers/STM32F0xx_StdPeriph_Driver/src/stm32f0xx_cec.c ****   /* Starts of new message */
 323:Drivers/STM32F0xx_StdPeriph_Driver/src/stm32f0xx_cec.c ****   CEC->CR |= CEC_CR_TXSOM; 
 424              		.loc 1 323 3 view .LVU89
 425              		.loc 1 323 11 is_stmt 0 view .LVU90
 426 0000 024A     		ldr	r2, .L29
 427 0002 1368     		ldr	r3, [r2]
 428 0004 0221     		movs	r1, #2
 429 0006 0B43     		orrs	r3, r1
 430 0008 1360     		str	r3, [r2]
 324:Drivers/STM32F0xx_StdPeriph_Driver/src/stm32f0xx_cec.c **** }
ARM GAS  /tmp/ccJwJrKF.s 			page 14


 431              		.loc 1 324 1 view .LVU91
 432              		@ sp needed
 433 000a 7047     		bx	lr
 434              	.L30:
 435              		.align	2
 436              	.L29:
 437 000c 00780040 		.word	1073772544
 438              		.cfi_endproc
 439              	.LFE49:
 441              		.section	.text.CEC_EndOfMessage,"ax",%progbits
 442              		.align	1
 443              		.global	CEC_EndOfMessage
 444              		.syntax unified
 445              		.code	16
 446              		.thumb_func
 447              		.fpu softvfp
 449              	CEC_EndOfMessage:
 450              	.LFB50:
 325:Drivers/STM32F0xx_StdPeriph_Driver/src/stm32f0xx_cec.c **** 
 326:Drivers/STM32F0xx_StdPeriph_Driver/src/stm32f0xx_cec.c **** /**
 327:Drivers/STM32F0xx_StdPeriph_Driver/src/stm32f0xx_cec.c ****   * @brief  Transmits message with an EOM bit.
 328:Drivers/STM32F0xx_StdPeriph_Driver/src/stm32f0xx_cec.c ****   * @param  None.
 329:Drivers/STM32F0xx_StdPeriph_Driver/src/stm32f0xx_cec.c ****   * @retval None
 330:Drivers/STM32F0xx_StdPeriph_Driver/src/stm32f0xx_cec.c ****   */
 331:Drivers/STM32F0xx_StdPeriph_Driver/src/stm32f0xx_cec.c **** void CEC_EndOfMessage(void)
 332:Drivers/STM32F0xx_StdPeriph_Driver/src/stm32f0xx_cec.c **** {
 451              		.loc 1 332 1 is_stmt 1 view -0
 452              		.cfi_startproc
 453              		@ args = 0, pretend = 0, frame = 0
 454              		@ frame_needed = 0, uses_anonymous_args = 0
 455              		@ link register save eliminated.
 333:Drivers/STM32F0xx_StdPeriph_Driver/src/stm32f0xx_cec.c ****   /* The data byte will be transmitted with an EOM bit */
 334:Drivers/STM32F0xx_StdPeriph_Driver/src/stm32f0xx_cec.c ****   CEC->CR |= CEC_CR_TXEOM;
 456              		.loc 1 334 3 view .LVU93
 457              		.loc 1 334 11 is_stmt 0 view .LVU94
 458 0000 024A     		ldr	r2, .L32
 459 0002 1368     		ldr	r3, [r2]
 460 0004 0421     		movs	r1, #4
 461 0006 0B43     		orrs	r3, r1
 462 0008 1360     		str	r3, [r2]
 335:Drivers/STM32F0xx_StdPeriph_Driver/src/stm32f0xx_cec.c **** }
 463              		.loc 1 335 1 view .LVU95
 464              		@ sp needed
 465 000a 7047     		bx	lr
 466              	.L33:
 467              		.align	2
 468              	.L32:
 469 000c 00780040 		.word	1073772544
 470              		.cfi_endproc
 471              	.LFE50:
 473              		.section	.text.CEC_ITConfig,"ax",%progbits
 474              		.align	1
 475              		.global	CEC_ITConfig
 476              		.syntax unified
 477              		.code	16
 478              		.thumb_func
 479              		.fpu softvfp
ARM GAS  /tmp/ccJwJrKF.s 			page 15


 481              	CEC_ITConfig:
 482              	.LVL15:
 483              	.LFB51:
 336:Drivers/STM32F0xx_StdPeriph_Driver/src/stm32f0xx_cec.c **** 
 337:Drivers/STM32F0xx_StdPeriph_Driver/src/stm32f0xx_cec.c **** /**
 338:Drivers/STM32F0xx_StdPeriph_Driver/src/stm32f0xx_cec.c ****   * @}
 339:Drivers/STM32F0xx_StdPeriph_Driver/src/stm32f0xx_cec.c ****   */
 340:Drivers/STM32F0xx_StdPeriph_Driver/src/stm32f0xx_cec.c **** 
 341:Drivers/STM32F0xx_StdPeriph_Driver/src/stm32f0xx_cec.c **** /** @defgroup CEC_Group3 Interrupts and flags management functions
 342:Drivers/STM32F0xx_StdPeriph_Driver/src/stm32f0xx_cec.c ****  *  @brief    Interrupts and flags management functions
 343:Drivers/STM32F0xx_StdPeriph_Driver/src/stm32f0xx_cec.c **** *
 344:Drivers/STM32F0xx_StdPeriph_Driver/src/stm32f0xx_cec.c **** @verbatim
 345:Drivers/STM32F0xx_StdPeriph_Driver/src/stm32f0xx_cec.c ****  ===============================================================================
 346:Drivers/STM32F0xx_StdPeriph_Driver/src/stm32f0xx_cec.c ****                             ##### Interrupts and flags management functions ##### 
 347:Drivers/STM32F0xx_StdPeriph_Driver/src/stm32f0xx_cec.c ****  ===============================================================================
 348:Drivers/STM32F0xx_StdPeriph_Driver/src/stm32f0xx_cec.c ****     [..] This section provides functions allowing to configure the CEC Interrupts
 349:Drivers/STM32F0xx_StdPeriph_Driver/src/stm32f0xx_cec.c ****          sources and check or clear the flags or pending bits status.
 350:Drivers/STM32F0xx_StdPeriph_Driver/src/stm32f0xx_cec.c ****     [..] The user should identify which mode will be used in his application to manage
 351:Drivers/STM32F0xx_StdPeriph_Driver/src/stm32f0xx_cec.c ****          the communication: Polling mode or Interrupt mode.
 352:Drivers/STM32F0xx_StdPeriph_Driver/src/stm32f0xx_cec.c ****   
 353:Drivers/STM32F0xx_StdPeriph_Driver/src/stm32f0xx_cec.c ****     [..] In polling mode, the CEC can be managed by the following flags:
 354:Drivers/STM32F0xx_StdPeriph_Driver/src/stm32f0xx_cec.c ****             (+) CEC_FLAG_TXACKE : to indicate a missing acknowledge in transmission mode.
 355:Drivers/STM32F0xx_StdPeriph_Driver/src/stm32f0xx_cec.c ****             (+) CEC_FLAG_TXERR  : to indicate an error occurs during transmission mode.
 356:Drivers/STM32F0xx_StdPeriph_Driver/src/stm32f0xx_cec.c ****                                   The initiator detects low impedance in the CEC line.
 357:Drivers/STM32F0xx_StdPeriph_Driver/src/stm32f0xx_cec.c ****             (+) CEC_FLAG_TXUDR  : to indicate if an underrun error occurs in transmission mode.
 358:Drivers/STM32F0xx_StdPeriph_Driver/src/stm32f0xx_cec.c ****                                   The transmission is enabled while the software has not yet 
 359:Drivers/STM32F0xx_StdPeriph_Driver/src/stm32f0xx_cec.c ****                                   loaded any value into the TXDR register.
 360:Drivers/STM32F0xx_StdPeriph_Driver/src/stm32f0xx_cec.c ****             (+) CEC_FLAG_TXEND  : to indicate the end of successful transmission.
 361:Drivers/STM32F0xx_StdPeriph_Driver/src/stm32f0xx_cec.c ****             (+) CEC_FLAG_TXBR   : to indicate the next transmission data has to be written to TXDR.
 362:Drivers/STM32F0xx_StdPeriph_Driver/src/stm32f0xx_cec.c ****             (+) CEC_FLAG_ARBLST : to indicate arbitration lost in the case of two CEC devices
 363:Drivers/STM32F0xx_StdPeriph_Driver/src/stm32f0xx_cec.c ****                                   starting at the same time.
 364:Drivers/STM32F0xx_StdPeriph_Driver/src/stm32f0xx_cec.c ****             (+) CEC_FLAG_RXACKE : to indicate a missing acknowledge in receive mode.
 365:Drivers/STM32F0xx_StdPeriph_Driver/src/stm32f0xx_cec.c ****             (+) CEC_FLAG_LBPE   : to indicate a long bit period error generated during receive mode
 366:Drivers/STM32F0xx_StdPeriph_Driver/src/stm32f0xx_cec.c ****             (+) CEC_FLAG_SBPE   : to indicate a short bit period error generated during receive mod
 367:Drivers/STM32F0xx_StdPeriph_Driver/src/stm32f0xx_cec.c ****             (+) CEC_FLAG_BRE    : to indicate a bit rising error generated during receive mode.
 368:Drivers/STM32F0xx_StdPeriph_Driver/src/stm32f0xx_cec.c ****             (+) CEC_FLAG_RXOVR  : to indicate if an overrun error occur while receiving a CEC messa
 369:Drivers/STM32F0xx_StdPeriph_Driver/src/stm32f0xx_cec.c ****                                   A byte is not yet received while a new byte is stored in the RXDR
 370:Drivers/STM32F0xx_StdPeriph_Driver/src/stm32f0xx_cec.c ****             (+) CEC_FLAG_RXEND  : to indicate the end Of reception
 371:Drivers/STM32F0xx_StdPeriph_Driver/src/stm32f0xx_cec.c ****             (+) CEC_FLAG_RXBR   : to indicate a new byte has been received from the CEC line and 
 372:Drivers/STM32F0xx_StdPeriph_Driver/src/stm32f0xx_cec.c ****                                   stored into the RXDR buffer.
 373:Drivers/STM32F0xx_StdPeriph_Driver/src/stm32f0xx_cec.c ****     [..]
 374:Drivers/STM32F0xx_StdPeriph_Driver/src/stm32f0xx_cec.c ****            (@)In this Mode, it is advised to use the following functions:
 375:Drivers/STM32F0xx_StdPeriph_Driver/src/stm32f0xx_cec.c ****               FlagStatus CEC_GetFlagStatus(uint16_t CEC_FLAG);
 376:Drivers/STM32F0xx_StdPeriph_Driver/src/stm32f0xx_cec.c ****               void CEC_ClearFlag(uint16_t CEC_FLAG);
 377:Drivers/STM32F0xx_StdPeriph_Driver/src/stm32f0xx_cec.c **** 
 378:Drivers/STM32F0xx_StdPeriph_Driver/src/stm32f0xx_cec.c ****     [..] In Interrupt mode, the CEC can be managed by the following interrupt sources:
 379:Drivers/STM32F0xx_StdPeriph_Driver/src/stm32f0xx_cec.c ****            (+) CEC_IT_TXACKE : to indicate a TX Missing acknowledge 
 380:Drivers/STM32F0xx_StdPeriph_Driver/src/stm32f0xx_cec.c ****            (+) CEC_IT_TXACKE : to indicate a missing acknowledge in transmission mode.
 381:Drivers/STM32F0xx_StdPeriph_Driver/src/stm32f0xx_cec.c ****            (+) CEC_IT_TXERR  : to indicate an error occurs during transmission mode.
 382:Drivers/STM32F0xx_StdPeriph_Driver/src/stm32f0xx_cec.c ****                                The initiator detects low impedance in the CEC line.
 383:Drivers/STM32F0xx_StdPeriph_Driver/src/stm32f0xx_cec.c ****            (+) CEC_IT_TXUDR  : to indicate if an underrun error occurs in transmission mode.
 384:Drivers/STM32F0xx_StdPeriph_Driver/src/stm32f0xx_cec.c ****                                The transmission is enabled while the software has not yet 
 385:Drivers/STM32F0xx_StdPeriph_Driver/src/stm32f0xx_cec.c ****                                loaded any value into the TXDR register.
 386:Drivers/STM32F0xx_StdPeriph_Driver/src/stm32f0xx_cec.c ****            (+) CEC_IT_TXEND  : to indicate the end of successful transmission.
 387:Drivers/STM32F0xx_StdPeriph_Driver/src/stm32f0xx_cec.c ****            (+) CEC_IT_TXBR   : to indicate the next transmission data has to be written to TXDR reg
 388:Drivers/STM32F0xx_StdPeriph_Driver/src/stm32f0xx_cec.c ****            (+) CEC_IT_ARBLST : to indicate arbitration lost in the case of two CEC devices
 389:Drivers/STM32F0xx_StdPeriph_Driver/src/stm32f0xx_cec.c ****                                 starting at the same time.
ARM GAS  /tmp/ccJwJrKF.s 			page 16


 390:Drivers/STM32F0xx_StdPeriph_Driver/src/stm32f0xx_cec.c ****            (+) CEC_IT_RXACKE : to indicate a missing acknowledge in receive mode.
 391:Drivers/STM32F0xx_StdPeriph_Driver/src/stm32f0xx_cec.c ****            (+) CEC_IT_LBPE   : to indicate a long bit period error generated during receive mode.
 392:Drivers/STM32F0xx_StdPeriph_Driver/src/stm32f0xx_cec.c ****            (+) CEC_IT_SBPE   : to indicate a short bit period error generated during receive mode.
 393:Drivers/STM32F0xx_StdPeriph_Driver/src/stm32f0xx_cec.c ****            (+) CEC_IT_BRE    : to indicate a bit rising error generated during receive mode.
 394:Drivers/STM32F0xx_StdPeriph_Driver/src/stm32f0xx_cec.c ****            (+) CEC_IT_RXOVR  : to indicate if an overrun error occur while receiving a CEC message.
 395:Drivers/STM32F0xx_StdPeriph_Driver/src/stm32f0xx_cec.c ****                                A byte is not yet received while a new byte is stored in the RXDR re
 396:Drivers/STM32F0xx_StdPeriph_Driver/src/stm32f0xx_cec.c ****            (+) CEC_IT_RXEND  : to indicate the end Of reception
 397:Drivers/STM32F0xx_StdPeriph_Driver/src/stm32f0xx_cec.c ****            (+) CEC_IT_RXBR   : to indicate a new byte has been received from the CEC line and 
 398:Drivers/STM32F0xx_StdPeriph_Driver/src/stm32f0xx_cec.c ****                                 stored into the RXDR buffer.
 399:Drivers/STM32F0xx_StdPeriph_Driver/src/stm32f0xx_cec.c ****     [..]
 400:Drivers/STM32F0xx_StdPeriph_Driver/src/stm32f0xx_cec.c ****            (@)In this Mode it is advised to use the following functions:
 401:Drivers/STM32F0xx_StdPeriph_Driver/src/stm32f0xx_cec.c ****               void CEC_ITConfig( uint16_t CEC_IT, FunctionalState NewState);
 402:Drivers/STM32F0xx_StdPeriph_Driver/src/stm32f0xx_cec.c ****               ITStatus CEC_GetITStatus(uint16_t CEC_IT);
 403:Drivers/STM32F0xx_StdPeriph_Driver/src/stm32f0xx_cec.c ****               void CEC_ClearITPendingBit(uint16_t CEC_IT);
 404:Drivers/STM32F0xx_StdPeriph_Driver/src/stm32f0xx_cec.c ****               
 405:Drivers/STM32F0xx_StdPeriph_Driver/src/stm32f0xx_cec.c **** 
 406:Drivers/STM32F0xx_StdPeriph_Driver/src/stm32f0xx_cec.c **** @endverbatim
 407:Drivers/STM32F0xx_StdPeriph_Driver/src/stm32f0xx_cec.c ****   * @{
 408:Drivers/STM32F0xx_StdPeriph_Driver/src/stm32f0xx_cec.c ****   */
 409:Drivers/STM32F0xx_StdPeriph_Driver/src/stm32f0xx_cec.c **** 
 410:Drivers/STM32F0xx_StdPeriph_Driver/src/stm32f0xx_cec.c **** /**
 411:Drivers/STM32F0xx_StdPeriph_Driver/src/stm32f0xx_cec.c ****   * @brief  Enables or disables the selected CEC interrupts.
 412:Drivers/STM32F0xx_StdPeriph_Driver/src/stm32f0xx_cec.c ****   * @param  CEC_IT: specifies the CEC interrupt source to be enabled.
 413:Drivers/STM32F0xx_StdPeriph_Driver/src/stm32f0xx_cec.c ****   *         This parameter can be any combination of the following values:
 414:Drivers/STM32F0xx_StdPeriph_Driver/src/stm32f0xx_cec.c ****   *     @arg CEC_IT_TXACKE: Tx Missing acknowledge Error
 415:Drivers/STM32F0xx_StdPeriph_Driver/src/stm32f0xx_cec.c ****   *     @arg CEC_IT_TXERR: Tx Error.
 416:Drivers/STM32F0xx_StdPeriph_Driver/src/stm32f0xx_cec.c ****   *     @arg CEC_IT_TXUDR: Tx-Buffer Underrun.
 417:Drivers/STM32F0xx_StdPeriph_Driver/src/stm32f0xx_cec.c ****   *     @arg CEC_IT_TXEND: End of Transmission (successful transmission of the last byte).
 418:Drivers/STM32F0xx_StdPeriph_Driver/src/stm32f0xx_cec.c ****   *     @arg CEC_IT_TXBR: Tx-Byte Request.
 419:Drivers/STM32F0xx_StdPeriph_Driver/src/stm32f0xx_cec.c ****   *     @arg CEC_IT_ARBLST: Arbitration Lost
 420:Drivers/STM32F0xx_StdPeriph_Driver/src/stm32f0xx_cec.c ****   *     @arg CEC_IT_RXACKE: Rx-Missing Acknowledge
 421:Drivers/STM32F0xx_StdPeriph_Driver/src/stm32f0xx_cec.c ****   *     @arg CEC_IT_LBPE: Rx Long period Error
 422:Drivers/STM32F0xx_StdPeriph_Driver/src/stm32f0xx_cec.c ****   *     @arg CEC_IT_SBPE: Rx Short period Error
 423:Drivers/STM32F0xx_StdPeriph_Driver/src/stm32f0xx_cec.c ****   *     @arg CEC_IT_BRE: Rx Bit Rising Error
 424:Drivers/STM32F0xx_StdPeriph_Driver/src/stm32f0xx_cec.c ****   *     @arg CEC_IT_RXOVR: Rx Overrun.
 425:Drivers/STM32F0xx_StdPeriph_Driver/src/stm32f0xx_cec.c ****   *     @arg CEC_IT_RXEND: End Of Reception
 426:Drivers/STM32F0xx_StdPeriph_Driver/src/stm32f0xx_cec.c ****   *     @arg CEC_IT_RXBR: Rx-Byte Received
 427:Drivers/STM32F0xx_StdPeriph_Driver/src/stm32f0xx_cec.c ****   * @param  NewState: new state of the selected CEC interrupts.
 428:Drivers/STM32F0xx_StdPeriph_Driver/src/stm32f0xx_cec.c ****   *         This parameter can be: ENABLE or DISABLE.
 429:Drivers/STM32F0xx_StdPeriph_Driver/src/stm32f0xx_cec.c ****   * @retval None
 430:Drivers/STM32F0xx_StdPeriph_Driver/src/stm32f0xx_cec.c ****   */
 431:Drivers/STM32F0xx_StdPeriph_Driver/src/stm32f0xx_cec.c **** void CEC_ITConfig(uint16_t CEC_IT, FunctionalState NewState)
 432:Drivers/STM32F0xx_StdPeriph_Driver/src/stm32f0xx_cec.c **** {
 484              		.loc 1 432 1 is_stmt 1 view -0
 485              		.cfi_startproc
 486              		@ args = 0, pretend = 0, frame = 0
 487              		@ frame_needed = 0, uses_anonymous_args = 0
 488              		@ link register save eliminated.
 433:Drivers/STM32F0xx_StdPeriph_Driver/src/stm32f0xx_cec.c ****   assert_param(IS_FUNCTIONAL_STATE(NewState));
 489              		.loc 1 433 3 view .LVU97
 434:Drivers/STM32F0xx_StdPeriph_Driver/src/stm32f0xx_cec.c ****   assert_param(IS_CEC_IT(CEC_IT));
 490              		.loc 1 434 3 view .LVU98
 435:Drivers/STM32F0xx_StdPeriph_Driver/src/stm32f0xx_cec.c **** 
 436:Drivers/STM32F0xx_StdPeriph_Driver/src/stm32f0xx_cec.c ****   if (NewState != DISABLE)
 491              		.loc 1 436 3 view .LVU99
 492              		.loc 1 436 6 is_stmt 0 view .LVU100
 493 0000 0029     		cmp	r1, #0
ARM GAS  /tmp/ccJwJrKF.s 			page 17


 494 0002 04D0     		beq	.L35
 437:Drivers/STM32F0xx_StdPeriph_Driver/src/stm32f0xx_cec.c ****   {
 438:Drivers/STM32F0xx_StdPeriph_Driver/src/stm32f0xx_cec.c ****     /* Enable the selected CEC interrupt */
 439:Drivers/STM32F0xx_StdPeriph_Driver/src/stm32f0xx_cec.c ****     CEC->IER |= CEC_IT;
 495              		.loc 1 439 5 is_stmt 1 view .LVU101
 496              		.loc 1 439 14 is_stmt 0 view .LVU102
 497 0004 054B     		ldr	r3, .L37
 498 0006 5A69     		ldr	r2, [r3, #20]
 499 0008 1043     		orrs	r0, r2
 500              	.LVL16:
 501              		.loc 1 439 14 view .LVU103
 502 000a 5861     		str	r0, [r3, #20]
 503              	.LVL17:
 504              	.L34:
 440:Drivers/STM32F0xx_StdPeriph_Driver/src/stm32f0xx_cec.c ****   }
 441:Drivers/STM32F0xx_StdPeriph_Driver/src/stm32f0xx_cec.c ****   else
 442:Drivers/STM32F0xx_StdPeriph_Driver/src/stm32f0xx_cec.c ****   {
 443:Drivers/STM32F0xx_StdPeriph_Driver/src/stm32f0xx_cec.c ****     CEC_IT =~CEC_IT;
 444:Drivers/STM32F0xx_StdPeriph_Driver/src/stm32f0xx_cec.c ****     /* Disable the selected CEC interrupt */
 445:Drivers/STM32F0xx_StdPeriph_Driver/src/stm32f0xx_cec.c ****     CEC->IER &= CEC_IT;
 446:Drivers/STM32F0xx_StdPeriph_Driver/src/stm32f0xx_cec.c ****   }
 447:Drivers/STM32F0xx_StdPeriph_Driver/src/stm32f0xx_cec.c **** }
 505              		.loc 1 447 1 view .LVU104
 506              		@ sp needed
 507 000c 7047     		bx	lr
 508              	.LVL18:
 509              	.L35:
 443:Drivers/STM32F0xx_StdPeriph_Driver/src/stm32f0xx_cec.c ****     /* Disable the selected CEC interrupt */
 510              		.loc 1 443 5 is_stmt 1 view .LVU105
 443:Drivers/STM32F0xx_StdPeriph_Driver/src/stm32f0xx_cec.c ****     /* Disable the selected CEC interrupt */
 511              		.loc 1 443 12 is_stmt 0 view .LVU106
 512 000e C043     		mvns	r0, r0
 513              	.LVL19:
 443:Drivers/STM32F0xx_StdPeriph_Driver/src/stm32f0xx_cec.c ****     /* Disable the selected CEC interrupt */
 514              		.loc 1 443 12 view .LVU107
 515 0010 80B2     		uxth	r0, r0
 516              	.LVL20:
 445:Drivers/STM32F0xx_StdPeriph_Driver/src/stm32f0xx_cec.c ****   }
 517              		.loc 1 445 5 is_stmt 1 view .LVU108
 445:Drivers/STM32F0xx_StdPeriph_Driver/src/stm32f0xx_cec.c ****   }
 518              		.loc 1 445 14 is_stmt 0 view .LVU109
 519 0012 024A     		ldr	r2, .L37
 520 0014 5369     		ldr	r3, [r2, #20]
 521 0016 1840     		ands	r0, r3
 522              	.LVL21:
 445:Drivers/STM32F0xx_StdPeriph_Driver/src/stm32f0xx_cec.c ****   }
 523              		.loc 1 445 14 view .LVU110
 524 0018 5061     		str	r0, [r2, #20]
 525              		.loc 1 447 1 view .LVU111
 526 001a F7E7     		b	.L34
 527              	.L38:
 528              		.align	2
 529              	.L37:
 530 001c 00780040 		.word	1073772544
 531              		.cfi_endproc
 532              	.LFE51:
 534              		.section	.text.CEC_GetFlagStatus,"ax",%progbits
ARM GAS  /tmp/ccJwJrKF.s 			page 18


 535              		.align	1
 536              		.global	CEC_GetFlagStatus
 537              		.syntax unified
 538              		.code	16
 539              		.thumb_func
 540              		.fpu softvfp
 542              	CEC_GetFlagStatus:
 543              	.LVL22:
 544              	.LFB52:
 448:Drivers/STM32F0xx_StdPeriph_Driver/src/stm32f0xx_cec.c **** 
 449:Drivers/STM32F0xx_StdPeriph_Driver/src/stm32f0xx_cec.c **** /**
 450:Drivers/STM32F0xx_StdPeriph_Driver/src/stm32f0xx_cec.c ****   * @brief  Gets the CEC flag status.
 451:Drivers/STM32F0xx_StdPeriph_Driver/src/stm32f0xx_cec.c ****   * @param  CEC_FLAG: specifies the CEC flag to check.
 452:Drivers/STM32F0xx_StdPeriph_Driver/src/stm32f0xx_cec.c ****   *     This parameter can be one of the following values:
 453:Drivers/STM32F0xx_StdPeriph_Driver/src/stm32f0xx_cec.c ****   *     @arg CEC_FLAG_TXACKE: Tx Missing acknowledge Error
 454:Drivers/STM32F0xx_StdPeriph_Driver/src/stm32f0xx_cec.c ****   *     @arg CEC_FLAG_TXERR: Tx Error.
 455:Drivers/STM32F0xx_StdPeriph_Driver/src/stm32f0xx_cec.c ****   *     @arg CEC_FLAG_TXUDR: Tx-Buffer Underrun.
 456:Drivers/STM32F0xx_StdPeriph_Driver/src/stm32f0xx_cec.c ****   *     @arg CEC_FLAG_TXEND: End of transmission (successful transmission of the last byte).
 457:Drivers/STM32F0xx_StdPeriph_Driver/src/stm32f0xx_cec.c ****   *     @arg CEC_FLAG_TXBR: Tx-Byte Request.
 458:Drivers/STM32F0xx_StdPeriph_Driver/src/stm32f0xx_cec.c ****   *     @arg CEC_FLAG_ARBLST: Arbitration Lost
 459:Drivers/STM32F0xx_StdPeriph_Driver/src/stm32f0xx_cec.c ****   *     @arg CEC_FLAG_RXACKE: Rx-Missing Acknowledge 
 460:Drivers/STM32F0xx_StdPeriph_Driver/src/stm32f0xx_cec.c ****   *     @arg CEC_FLAG_LBPE: Rx Long period Error
 461:Drivers/STM32F0xx_StdPeriph_Driver/src/stm32f0xx_cec.c ****   *     @arg CEC_FLAG_SBPE: Rx Short period Error
 462:Drivers/STM32F0xx_StdPeriph_Driver/src/stm32f0xx_cec.c ****   *     @arg CEC_FLAG_BRE: Rx Bit Rissing Error
 463:Drivers/STM32F0xx_StdPeriph_Driver/src/stm32f0xx_cec.c ****   *     @arg CEC_FLAG_RXOVR: Rx Overrun.
 464:Drivers/STM32F0xx_StdPeriph_Driver/src/stm32f0xx_cec.c ****   *     @arg CEC_FLAG_RXEND: End Of Reception.
 465:Drivers/STM32F0xx_StdPeriph_Driver/src/stm32f0xx_cec.c ****   *     @arg CEC_FLAG_RXBR: Rx-Byte Received.
 466:Drivers/STM32F0xx_StdPeriph_Driver/src/stm32f0xx_cec.c ****   * @retval The new state of CEC_FLAG (SET or RESET)
 467:Drivers/STM32F0xx_StdPeriph_Driver/src/stm32f0xx_cec.c ****   */
 468:Drivers/STM32F0xx_StdPeriph_Driver/src/stm32f0xx_cec.c **** FlagStatus CEC_GetFlagStatus(uint16_t CEC_FLAG) 
 469:Drivers/STM32F0xx_StdPeriph_Driver/src/stm32f0xx_cec.c **** {
 545              		.loc 1 469 1 is_stmt 1 view -0
 546              		.cfi_startproc
 547              		@ args = 0, pretend = 0, frame = 0
 548              		@ frame_needed = 0, uses_anonymous_args = 0
 549              		@ link register save eliminated.
 470:Drivers/STM32F0xx_StdPeriph_Driver/src/stm32f0xx_cec.c ****   FlagStatus bitstatus = RESET;
 550              		.loc 1 470 3 view .LVU113
 471:Drivers/STM32F0xx_StdPeriph_Driver/src/stm32f0xx_cec.c ****   
 472:Drivers/STM32F0xx_StdPeriph_Driver/src/stm32f0xx_cec.c ****   assert_param(IS_CEC_GET_FLAG(CEC_FLAG));
 551              		.loc 1 472 3 view .LVU114
 473:Drivers/STM32F0xx_StdPeriph_Driver/src/stm32f0xx_cec.c ****   
 474:Drivers/STM32F0xx_StdPeriph_Driver/src/stm32f0xx_cec.c ****   /* Check the status of the specified CEC flag */
 475:Drivers/STM32F0xx_StdPeriph_Driver/src/stm32f0xx_cec.c ****   if ((CEC->ISR & CEC_FLAG) != (uint16_t)RESET)
 552              		.loc 1 475 3 view .LVU115
 553              		.loc 1 475 11 is_stmt 0 view .LVU116
 554 0000 034B     		ldr	r3, .L42
 555 0002 1B69     		ldr	r3, [r3, #16]
 556              		.loc 1 475 6 view .LVU117
 557 0004 0342     		tst	r3, r0
 558 0006 01D0     		beq	.L41
 476:Drivers/STM32F0xx_StdPeriph_Driver/src/stm32f0xx_cec.c ****   {
 477:Drivers/STM32F0xx_StdPeriph_Driver/src/stm32f0xx_cec.c ****     /* CEC flag is set */
 478:Drivers/STM32F0xx_StdPeriph_Driver/src/stm32f0xx_cec.c ****     bitstatus = SET;
 559              		.loc 1 478 15 view .LVU118
 560 0008 0120     		movs	r0, #1
 561              	.LVL23:
ARM GAS  /tmp/ccJwJrKF.s 			page 19


 562              	.L40:
 479:Drivers/STM32F0xx_StdPeriph_Driver/src/stm32f0xx_cec.c ****   }
 480:Drivers/STM32F0xx_StdPeriph_Driver/src/stm32f0xx_cec.c ****   else
 481:Drivers/STM32F0xx_StdPeriph_Driver/src/stm32f0xx_cec.c ****   {
 482:Drivers/STM32F0xx_StdPeriph_Driver/src/stm32f0xx_cec.c ****     /* CEC flag is reset */
 483:Drivers/STM32F0xx_StdPeriph_Driver/src/stm32f0xx_cec.c ****     bitstatus = RESET;
 484:Drivers/STM32F0xx_StdPeriph_Driver/src/stm32f0xx_cec.c ****   }
 485:Drivers/STM32F0xx_StdPeriph_Driver/src/stm32f0xx_cec.c **** 
 486:Drivers/STM32F0xx_StdPeriph_Driver/src/stm32f0xx_cec.c ****   /* Return the CEC flag status */
 487:Drivers/STM32F0xx_StdPeriph_Driver/src/stm32f0xx_cec.c ****   return  bitstatus;
 563              		.loc 1 487 3 is_stmt 1 view .LVU119
 488:Drivers/STM32F0xx_StdPeriph_Driver/src/stm32f0xx_cec.c **** }
 564              		.loc 1 488 1 is_stmt 0 view .LVU120
 565              		@ sp needed
 566 000a 7047     		bx	lr
 567              	.LVL24:
 568              	.L41:
 483:Drivers/STM32F0xx_StdPeriph_Driver/src/stm32f0xx_cec.c ****   }
 569              		.loc 1 483 15 view .LVU121
 570 000c 0020     		movs	r0, #0
 571              	.LVL25:
 483:Drivers/STM32F0xx_StdPeriph_Driver/src/stm32f0xx_cec.c ****   }
 572              		.loc 1 483 15 view .LVU122
 573 000e FCE7     		b	.L40
 574              	.L43:
 575              		.align	2
 576              	.L42:
 577 0010 00780040 		.word	1073772544
 578              		.cfi_endproc
 579              	.LFE52:
 581              		.section	.text.CEC_ClearFlag,"ax",%progbits
 582              		.align	1
 583              		.global	CEC_ClearFlag
 584              		.syntax unified
 585              		.code	16
 586              		.thumb_func
 587              		.fpu softvfp
 589              	CEC_ClearFlag:
 590              	.LVL26:
 591              	.LFB53:
 489:Drivers/STM32F0xx_StdPeriph_Driver/src/stm32f0xx_cec.c **** 
 490:Drivers/STM32F0xx_StdPeriph_Driver/src/stm32f0xx_cec.c **** /**
 491:Drivers/STM32F0xx_StdPeriph_Driver/src/stm32f0xx_cec.c ****   * @brief  Clears the CEC's pending flags.
 492:Drivers/STM32F0xx_StdPeriph_Driver/src/stm32f0xx_cec.c ****   * @param  CEC_FLAG: specifies the flag to clear. 
 493:Drivers/STM32F0xx_StdPeriph_Driver/src/stm32f0xx_cec.c ****   *   This parameter can be any combination of the following values:
 494:Drivers/STM32F0xx_StdPeriph_Driver/src/stm32f0xx_cec.c ****   *     @arg CEC_FLAG_TXACKE: Tx Missing acknowledge Error
 495:Drivers/STM32F0xx_StdPeriph_Driver/src/stm32f0xx_cec.c ****   *     @arg CEC_FLAG_TXERR: Tx Error
 496:Drivers/STM32F0xx_StdPeriph_Driver/src/stm32f0xx_cec.c ****   *     @arg CEC_FLAG_TXUDR: Tx-Buffer Underrun
 497:Drivers/STM32F0xx_StdPeriph_Driver/src/stm32f0xx_cec.c ****   *     @arg CEC_FLAG_TXEND: End of transmission (successful transmission of the last byte).
 498:Drivers/STM32F0xx_StdPeriph_Driver/src/stm32f0xx_cec.c ****   *     @arg CEC_FLAG_TXBR: Tx-Byte Request
 499:Drivers/STM32F0xx_StdPeriph_Driver/src/stm32f0xx_cec.c ****   *     @arg CEC_FLAG_ARBLST: Arbitration Lost
 500:Drivers/STM32F0xx_StdPeriph_Driver/src/stm32f0xx_cec.c ****   *     @arg CEC_FLAG_RXACKE: Rx Missing Acknowledge 
 501:Drivers/STM32F0xx_StdPeriph_Driver/src/stm32f0xx_cec.c ****   *     @arg CEC_FLAG_LBPE: Rx Long period Error
 502:Drivers/STM32F0xx_StdPeriph_Driver/src/stm32f0xx_cec.c ****   *     @arg CEC_FLAG_SBPE: Rx Short period Error
 503:Drivers/STM32F0xx_StdPeriph_Driver/src/stm32f0xx_cec.c ****   *     @arg CEC_FLAG_BRE: Rx Bit Rising Error
 504:Drivers/STM32F0xx_StdPeriph_Driver/src/stm32f0xx_cec.c ****   *     @arg CEC_FLAG_RXOVR: Rx Overrun
 505:Drivers/STM32F0xx_StdPeriph_Driver/src/stm32f0xx_cec.c ****   *     @arg CEC_FLAG_RXEND: End Of Reception
ARM GAS  /tmp/ccJwJrKF.s 			page 20


 506:Drivers/STM32F0xx_StdPeriph_Driver/src/stm32f0xx_cec.c ****   *     @arg CEC_FLAG_RXBR: Rx-Byte Received
 507:Drivers/STM32F0xx_StdPeriph_Driver/src/stm32f0xx_cec.c ****   * @retval None
 508:Drivers/STM32F0xx_StdPeriph_Driver/src/stm32f0xx_cec.c ****   */
 509:Drivers/STM32F0xx_StdPeriph_Driver/src/stm32f0xx_cec.c **** void CEC_ClearFlag(uint32_t CEC_FLAG)
 510:Drivers/STM32F0xx_StdPeriph_Driver/src/stm32f0xx_cec.c **** {
 592              		.loc 1 510 1 is_stmt 1 view -0
 593              		.cfi_startproc
 594              		@ args = 0, pretend = 0, frame = 0
 595              		@ frame_needed = 0, uses_anonymous_args = 0
 596              		@ link register save eliminated.
 511:Drivers/STM32F0xx_StdPeriph_Driver/src/stm32f0xx_cec.c ****   assert_param(IS_CEC_CLEAR_FLAG(CEC_FLAG));
 597              		.loc 1 511 3 view .LVU124
 512:Drivers/STM32F0xx_StdPeriph_Driver/src/stm32f0xx_cec.c **** 
 513:Drivers/STM32F0xx_StdPeriph_Driver/src/stm32f0xx_cec.c ****   /* Clear the selected CEC flag */
 514:Drivers/STM32F0xx_StdPeriph_Driver/src/stm32f0xx_cec.c ****   CEC->ISR = CEC_FLAG;
 598              		.loc 1 514 3 view .LVU125
 599              		.loc 1 514 12 is_stmt 0 view .LVU126
 600 0000 014B     		ldr	r3, .L45
 601 0002 1861     		str	r0, [r3, #16]
 515:Drivers/STM32F0xx_StdPeriph_Driver/src/stm32f0xx_cec.c **** }
 602              		.loc 1 515 1 view .LVU127
 603              		@ sp needed
 604 0004 7047     		bx	lr
 605              	.L46:
 606 0006 C046     		.align	2
 607              	.L45:
 608 0008 00780040 		.word	1073772544
 609              		.cfi_endproc
 610              	.LFE53:
 612              		.section	.text.CEC_GetITStatus,"ax",%progbits
 613              		.align	1
 614              		.global	CEC_GetITStatus
 615              		.syntax unified
 616              		.code	16
 617              		.thumb_func
 618              		.fpu softvfp
 620              	CEC_GetITStatus:
 621              	.LVL27:
 622              	.LFB54:
 516:Drivers/STM32F0xx_StdPeriph_Driver/src/stm32f0xx_cec.c **** 
 517:Drivers/STM32F0xx_StdPeriph_Driver/src/stm32f0xx_cec.c **** /**
 518:Drivers/STM32F0xx_StdPeriph_Driver/src/stm32f0xx_cec.c ****   * @brief  Checks whether the specified CEC interrupt has occurred or not.
 519:Drivers/STM32F0xx_StdPeriph_Driver/src/stm32f0xx_cec.c ****   * @param  CEC_IT: specifies the CEC interrupt source to check. 
 520:Drivers/STM32F0xx_StdPeriph_Driver/src/stm32f0xx_cec.c ****   *   This parameter can be one of the following values:
 521:Drivers/STM32F0xx_StdPeriph_Driver/src/stm32f0xx_cec.c ****   *     @arg CEC_IT_TXACKE: Tx Missing acknowledge Error
 522:Drivers/STM32F0xx_StdPeriph_Driver/src/stm32f0xx_cec.c ****   *     @arg CEC_IT_TXERR: Tx Error.
 523:Drivers/STM32F0xx_StdPeriph_Driver/src/stm32f0xx_cec.c ****   *     @arg CEC_IT_TXUDR: Tx-Buffer Underrun.
 524:Drivers/STM32F0xx_StdPeriph_Driver/src/stm32f0xx_cec.c ****   *     @arg CEC_IT_TXEND: End of transmission (successful transmission of the last byte).
 525:Drivers/STM32F0xx_StdPeriph_Driver/src/stm32f0xx_cec.c ****   *     @arg CEC_IT_TXBR: Tx-Byte Request.
 526:Drivers/STM32F0xx_StdPeriph_Driver/src/stm32f0xx_cec.c ****   *     @arg CEC_IT_ARBLST: Arbitration Lost.
 527:Drivers/STM32F0xx_StdPeriph_Driver/src/stm32f0xx_cec.c ****   *     @arg CEC_IT_RXACKE: Rx-Missing Acknowledge.
 528:Drivers/STM32F0xx_StdPeriph_Driver/src/stm32f0xx_cec.c ****   *     @arg CEC_IT_LBPE: Rx Long period Error.
 529:Drivers/STM32F0xx_StdPeriph_Driver/src/stm32f0xx_cec.c ****   *     @arg CEC_IT_SBPE: Rx Short period Error.
 530:Drivers/STM32F0xx_StdPeriph_Driver/src/stm32f0xx_cec.c ****   *     @arg CEC_IT_BRE: Rx Bit Rising Error.
 531:Drivers/STM32F0xx_StdPeriph_Driver/src/stm32f0xx_cec.c ****   *     @arg CEC_IT_RXOVR: Rx Overrun.
 532:Drivers/STM32F0xx_StdPeriph_Driver/src/stm32f0xx_cec.c ****   *     @arg CEC_IT_RXEND: End Of Reception.
 533:Drivers/STM32F0xx_StdPeriph_Driver/src/stm32f0xx_cec.c ****   *     @arg CEC_IT_RXBR: Rx-Byte Received 
ARM GAS  /tmp/ccJwJrKF.s 			page 21


 534:Drivers/STM32F0xx_StdPeriph_Driver/src/stm32f0xx_cec.c ****   * @retval The new state of CEC_IT (SET or RESET).
 535:Drivers/STM32F0xx_StdPeriph_Driver/src/stm32f0xx_cec.c ****   */
 536:Drivers/STM32F0xx_StdPeriph_Driver/src/stm32f0xx_cec.c **** ITStatus CEC_GetITStatus(uint16_t CEC_IT)
 537:Drivers/STM32F0xx_StdPeriph_Driver/src/stm32f0xx_cec.c **** {
 623              		.loc 1 537 1 is_stmt 1 view -0
 624              		.cfi_startproc
 625              		@ args = 0, pretend = 0, frame = 0
 626              		@ frame_needed = 0, uses_anonymous_args = 0
 627              		@ link register save eliminated.
 538:Drivers/STM32F0xx_StdPeriph_Driver/src/stm32f0xx_cec.c ****   ITStatus bitstatus = RESET;
 628              		.loc 1 538 3 view .LVU129
 539:Drivers/STM32F0xx_StdPeriph_Driver/src/stm32f0xx_cec.c ****   uint32_t enablestatus = 0;
 629              		.loc 1 539 3 view .LVU130
 540:Drivers/STM32F0xx_StdPeriph_Driver/src/stm32f0xx_cec.c **** 
 541:Drivers/STM32F0xx_StdPeriph_Driver/src/stm32f0xx_cec.c ****   /* Check the parameters */
 542:Drivers/STM32F0xx_StdPeriph_Driver/src/stm32f0xx_cec.c ****   assert_param(IS_CEC_GET_IT(CEC_IT));
 630              		.loc 1 542 3 view .LVU131
 543:Drivers/STM32F0xx_StdPeriph_Driver/src/stm32f0xx_cec.c **** 
 544:Drivers/STM32F0xx_StdPeriph_Driver/src/stm32f0xx_cec.c ****   /* Get the CEC IT enable bit status */
 545:Drivers/STM32F0xx_StdPeriph_Driver/src/stm32f0xx_cec.c ****   enablestatus = (CEC->IER & CEC_IT);
 631              		.loc 1 545 3 view .LVU132
 632              		.loc 1 545 22 is_stmt 0 view .LVU133
 633 0000 064A     		ldr	r2, .L51
 634 0002 5369     		ldr	r3, [r2, #20]
 635              		.loc 1 545 16 view .LVU134
 636 0004 0340     		ands	r3, r0
 637              	.LVL28:
 546:Drivers/STM32F0xx_StdPeriph_Driver/src/stm32f0xx_cec.c **** 
 547:Drivers/STM32F0xx_StdPeriph_Driver/src/stm32f0xx_cec.c ****   /* Check the status of the specified CEC interrupt */
 548:Drivers/STM32F0xx_StdPeriph_Driver/src/stm32f0xx_cec.c ****   if (((CEC->ISR & CEC_IT) != (uint32_t)RESET) && enablestatus)
 638              		.loc 1 548 3 is_stmt 1 view .LVU135
 639              		.loc 1 548 12 is_stmt 0 view .LVU136
 640 0006 1269     		ldr	r2, [r2, #16]
 641              		.loc 1 548 6 view .LVU137
 642 0008 0242     		tst	r2, r0
 643 000a 03D0     		beq	.L49
 644              		.loc 1 548 48 discriminator 1 view .LVU138
 645 000c 002B     		cmp	r3, #0
 646 000e 03D1     		bne	.L50
 549:Drivers/STM32F0xx_StdPeriph_Driver/src/stm32f0xx_cec.c ****   {
 550:Drivers/STM32F0xx_StdPeriph_Driver/src/stm32f0xx_cec.c ****     /* CEC interrupt is set */
 551:Drivers/STM32F0xx_StdPeriph_Driver/src/stm32f0xx_cec.c ****     bitstatus = SET;
 552:Drivers/STM32F0xx_StdPeriph_Driver/src/stm32f0xx_cec.c ****   }
 553:Drivers/STM32F0xx_StdPeriph_Driver/src/stm32f0xx_cec.c ****   else
 554:Drivers/STM32F0xx_StdPeriph_Driver/src/stm32f0xx_cec.c ****   {
 555:Drivers/STM32F0xx_StdPeriph_Driver/src/stm32f0xx_cec.c ****     /* CEC interrupt is reset */
 556:Drivers/STM32F0xx_StdPeriph_Driver/src/stm32f0xx_cec.c ****     bitstatus = RESET;
 647              		.loc 1 556 15 view .LVU139
 648 0010 0020     		movs	r0, #0
 649              	.LVL29:
 650              		.loc 1 556 15 view .LVU140
 651 0012 00E0     		b	.L48
 652              	.LVL30:
 653              	.L49:
 654              		.loc 1 556 15 view .LVU141
 655 0014 0020     		movs	r0, #0
 656              	.LVL31:
ARM GAS  /tmp/ccJwJrKF.s 			page 22


 657              	.L48:
 557:Drivers/STM32F0xx_StdPeriph_Driver/src/stm32f0xx_cec.c ****   }
 558:Drivers/STM32F0xx_StdPeriph_Driver/src/stm32f0xx_cec.c **** 
 559:Drivers/STM32F0xx_StdPeriph_Driver/src/stm32f0xx_cec.c ****   /* Return the CEC interrupt status */
 560:Drivers/STM32F0xx_StdPeriph_Driver/src/stm32f0xx_cec.c ****   return  bitstatus;
 658              		.loc 1 560 3 is_stmt 1 view .LVU142
 561:Drivers/STM32F0xx_StdPeriph_Driver/src/stm32f0xx_cec.c **** }
 659              		.loc 1 561 1 is_stmt 0 view .LVU143
 660              		@ sp needed
 661 0016 7047     		bx	lr
 662              	.LVL32:
 663              	.L50:
 551:Drivers/STM32F0xx_StdPeriph_Driver/src/stm32f0xx_cec.c ****   }
 664              		.loc 1 551 15 view .LVU144
 665 0018 0120     		movs	r0, #1
 666              	.LVL33:
 551:Drivers/STM32F0xx_StdPeriph_Driver/src/stm32f0xx_cec.c ****   }
 667              		.loc 1 551 15 view .LVU145
 668 001a FCE7     		b	.L48
 669              	.L52:
 670              		.align	2
 671              	.L51:
 672 001c 00780040 		.word	1073772544
 673              		.cfi_endproc
 674              	.LFE54:
 676              		.section	.text.CEC_ClearITPendingBit,"ax",%progbits
 677              		.align	1
 678              		.global	CEC_ClearITPendingBit
 679              		.syntax unified
 680              		.code	16
 681              		.thumb_func
 682              		.fpu softvfp
 684              	CEC_ClearITPendingBit:
 685              	.LVL34:
 686              	.LFB55:
 562:Drivers/STM32F0xx_StdPeriph_Driver/src/stm32f0xx_cec.c **** 
 563:Drivers/STM32F0xx_StdPeriph_Driver/src/stm32f0xx_cec.c **** /**
 564:Drivers/STM32F0xx_StdPeriph_Driver/src/stm32f0xx_cec.c ****   * @brief  Clears the CEC's interrupt pending bits.
 565:Drivers/STM32F0xx_StdPeriph_Driver/src/stm32f0xx_cec.c ****   * @param  CEC_IT: specifies the CEC interrupt pending bit to clear.
 566:Drivers/STM32F0xx_StdPeriph_Driver/src/stm32f0xx_cec.c ****   *   This parameter can be any combination of the following values:
 567:Drivers/STM32F0xx_StdPeriph_Driver/src/stm32f0xx_cec.c ****   *     @arg CEC_IT_TXACKE: Tx Missing acknowledge Error
 568:Drivers/STM32F0xx_StdPeriph_Driver/src/stm32f0xx_cec.c ****   *     @arg CEC_IT_TXERR: Tx Error
 569:Drivers/STM32F0xx_StdPeriph_Driver/src/stm32f0xx_cec.c ****   *     @arg CEC_IT_TXUDR: Tx-Buffer Underrun
 570:Drivers/STM32F0xx_StdPeriph_Driver/src/stm32f0xx_cec.c ****   *     @arg CEC_IT_TXEND: End of Transmission
 571:Drivers/STM32F0xx_StdPeriph_Driver/src/stm32f0xx_cec.c ****   *     @arg CEC_IT_TXBR: Tx-Byte Request
 572:Drivers/STM32F0xx_StdPeriph_Driver/src/stm32f0xx_cec.c ****   *     @arg CEC_IT_ARBLST: Arbitration Lost
 573:Drivers/STM32F0xx_StdPeriph_Driver/src/stm32f0xx_cec.c ****   *     @arg CEC_IT_RXACKE: Rx-Missing Acknowledge
 574:Drivers/STM32F0xx_StdPeriph_Driver/src/stm32f0xx_cec.c ****   *     @arg CEC_IT_LBPE: Rx Long period Error
 575:Drivers/STM32F0xx_StdPeriph_Driver/src/stm32f0xx_cec.c ****   *     @arg CEC_IT_SBPE: Rx Short period Error
 576:Drivers/STM32F0xx_StdPeriph_Driver/src/stm32f0xx_cec.c ****   *     @arg CEC_IT_BRE: Rx Bit Rising Error
 577:Drivers/STM32F0xx_StdPeriph_Driver/src/stm32f0xx_cec.c ****   *     @arg CEC_IT_RXOVR: Rx Overrun
 578:Drivers/STM32F0xx_StdPeriph_Driver/src/stm32f0xx_cec.c ****   *     @arg CEC_IT_RXEND: End Of Reception
 579:Drivers/STM32F0xx_StdPeriph_Driver/src/stm32f0xx_cec.c ****   *     @arg CEC_IT_RXBR: Rx-Byte Received
 580:Drivers/STM32F0xx_StdPeriph_Driver/src/stm32f0xx_cec.c ****   * @retval None
 581:Drivers/STM32F0xx_StdPeriph_Driver/src/stm32f0xx_cec.c ****   */
 582:Drivers/STM32F0xx_StdPeriph_Driver/src/stm32f0xx_cec.c **** void CEC_ClearITPendingBit(uint16_t CEC_IT)
 583:Drivers/STM32F0xx_StdPeriph_Driver/src/stm32f0xx_cec.c **** {
ARM GAS  /tmp/ccJwJrKF.s 			page 23


 687              		.loc 1 583 1 is_stmt 1 view -0
 688              		.cfi_startproc
 689              		@ args = 0, pretend = 0, frame = 0
 690              		@ frame_needed = 0, uses_anonymous_args = 0
 691              		@ link register save eliminated.
 584:Drivers/STM32F0xx_StdPeriph_Driver/src/stm32f0xx_cec.c ****   assert_param(IS_CEC_IT(CEC_IT));
 692              		.loc 1 584 3 view .LVU147
 585:Drivers/STM32F0xx_StdPeriph_Driver/src/stm32f0xx_cec.c **** 
 586:Drivers/STM32F0xx_StdPeriph_Driver/src/stm32f0xx_cec.c ****   /* Clear the selected CEC interrupt pending bits */
 587:Drivers/STM32F0xx_StdPeriph_Driver/src/stm32f0xx_cec.c ****   CEC->ISR = CEC_IT;
 693              		.loc 1 587 3 view .LVU148
 694              		.loc 1 587 12 is_stmt 0 view .LVU149
 695 0000 014B     		ldr	r3, .L54
 696 0002 1861     		str	r0, [r3, #16]
 588:Drivers/STM32F0xx_StdPeriph_Driver/src/stm32f0xx_cec.c **** }
 697              		.loc 1 588 1 view .LVU150
 698              		@ sp needed
 699 0004 7047     		bx	lr
 700              	.L55:
 701 0006 C046     		.align	2
 702              	.L54:
 703 0008 00780040 		.word	1073772544
 704              		.cfi_endproc
 705              	.LFE55:
 707              		.text
 708              	.Letext0:
 709              		.file 2 "/usr/arm-none-eabi/include/machine/_default_types.h"
 710              		.file 3 "/usr/arm-none-eabi/include/sys/_stdint.h"
 711              		.file 4 "Drivers/CMSIS/Device/ST/STM32F0xx/Include/stm32f0xx.h"
 712              		.file 5 "Drivers/STM32F0xx_StdPeriph_Driver/inc/stm32f0xx_cec.h"
 713              		.file 6 "Drivers/CMSIS/Device/ST/STM32F0xx/Include/system_stm32f0xx.h"
 714              		.file 7 "Drivers/STM32F0xx_StdPeriph_Driver/inc/stm32f0xx_rcc.h"
ARM GAS  /tmp/ccJwJrKF.s 			page 24

