ARM GAS  /tmp/ccl7qK7g.s 			page 1


   1              		.cpu cortex-m0
   2              		.eabi_attribute 20, 1
   3              		.eabi_attribute 21, 1
   4              		.eabi_attribute 23, 3
   5              		.eabi_attribute 24, 1
   6              		.eabi_attribute 25, 1
   7              		.eabi_attribute 26, 1
   8              		.eabi_attribute 30, 1
   9              		.eabi_attribute 34, 0
  10              		.eabi_attribute 18, 4
  11              		.file	"stm32f0xx_it.c"
  12              		.text
  13              	.Ltext0:
  14              		.cfi_sections	.debug_frame
  15              		.section	.text.NMI_Handler,"ax",%progbits
  16              		.align	1
  17              		.global	NMI_Handler
  18              		.arch armv6s-m
  19              		.syntax unified
  20              		.code	16
  21              		.thumb_func
  22              		.fpu softvfp
  24              	NMI_Handler:
  25              	.LFB32:
  26              		.file 1 "/home/mert/dev/stm32/KON309E/Week 4/Project/Peripheral_Examples/Systick/stm32f0xx_it.c"
   1:/home/mert/dev/stm32/KON309E/Week 4/Project/Peripheral_Examples/Systick/stm32f0xx_it.c **** /**
   2:/home/mert/dev/stm32/KON309E/Week 4/Project/Peripheral_Examples/Systick/stm32f0xx_it.c ****   ******************************************************************************
   3:/home/mert/dev/stm32/KON309E/Week 4/Project/Peripheral_Examples/Systick/stm32f0xx_it.c ****   * @file    SysTick/stm32f0xx_it.c 
   4:/home/mert/dev/stm32/KON309E/Week 4/Project/Peripheral_Examples/Systick/stm32f0xx_it.c ****   * @author  MCD Application Team
   5:/home/mert/dev/stm32/KON309E/Week 4/Project/Peripheral_Examples/Systick/stm32f0xx_it.c ****   * @version V1.0.0
   6:/home/mert/dev/stm32/KON309E/Week 4/Project/Peripheral_Examples/Systick/stm32f0xx_it.c ****   * @date    23-March-2012
   7:/home/mert/dev/stm32/KON309E/Week 4/Project/Peripheral_Examples/Systick/stm32f0xx_it.c ****   * @brief   Main Interrupt Service Routines.
   8:/home/mert/dev/stm32/KON309E/Week 4/Project/Peripheral_Examples/Systick/stm32f0xx_it.c ****   *          This file provides template for all exceptions handler and 
   9:/home/mert/dev/stm32/KON309E/Week 4/Project/Peripheral_Examples/Systick/stm32f0xx_it.c ****   *          peripherals interrupt service routine.
  10:/home/mert/dev/stm32/KON309E/Week 4/Project/Peripheral_Examples/Systick/stm32f0xx_it.c ****   ******************************************************************************
  11:/home/mert/dev/stm32/KON309E/Week 4/Project/Peripheral_Examples/Systick/stm32f0xx_it.c ****   * @attention
  12:/home/mert/dev/stm32/KON309E/Week 4/Project/Peripheral_Examples/Systick/stm32f0xx_it.c ****   *
  13:/home/mert/dev/stm32/KON309E/Week 4/Project/Peripheral_Examples/Systick/stm32f0xx_it.c ****   * <h2><center>&copy; COPYRIGHT 2012 STMicroelectronics</center></h2>
  14:/home/mert/dev/stm32/KON309E/Week 4/Project/Peripheral_Examples/Systick/stm32f0xx_it.c ****   *
  15:/home/mert/dev/stm32/KON309E/Week 4/Project/Peripheral_Examples/Systick/stm32f0xx_it.c ****   * Licensed under MCD-ST Liberty SW License Agreement V2, (the "License");
  16:/home/mert/dev/stm32/KON309E/Week 4/Project/Peripheral_Examples/Systick/stm32f0xx_it.c ****   * You may not use this file except in compliance with the License.
  17:/home/mert/dev/stm32/KON309E/Week 4/Project/Peripheral_Examples/Systick/stm32f0xx_it.c ****   * You may obtain a copy of the License at:
  18:/home/mert/dev/stm32/KON309E/Week 4/Project/Peripheral_Examples/Systick/stm32f0xx_it.c ****   *
  19:/home/mert/dev/stm32/KON309E/Week 4/Project/Peripheral_Examples/Systick/stm32f0xx_it.c ****   *        http://www.st.com/software_license_agreement_liberty_v2
  20:/home/mert/dev/stm32/KON309E/Week 4/Project/Peripheral_Examples/Systick/stm32f0xx_it.c ****   *
  21:/home/mert/dev/stm32/KON309E/Week 4/Project/Peripheral_Examples/Systick/stm32f0xx_it.c ****   * Unless required by applicable law or agreed to in writing, software 
  22:/home/mert/dev/stm32/KON309E/Week 4/Project/Peripheral_Examples/Systick/stm32f0xx_it.c ****   * distributed under the License is distributed on an "AS IS" BASIS, 
  23:/home/mert/dev/stm32/KON309E/Week 4/Project/Peripheral_Examples/Systick/stm32f0xx_it.c ****   * WITHOUT WARRANTIES OR CONDITIONS OF ANY KIND, either express or implied.
  24:/home/mert/dev/stm32/KON309E/Week 4/Project/Peripheral_Examples/Systick/stm32f0xx_it.c ****   * See the License for the specific language governing permissions and
  25:/home/mert/dev/stm32/KON309E/Week 4/Project/Peripheral_Examples/Systick/stm32f0xx_it.c ****   * limitations under the License.
  26:/home/mert/dev/stm32/KON309E/Week 4/Project/Peripheral_Examples/Systick/stm32f0xx_it.c ****   *
  27:/home/mert/dev/stm32/KON309E/Week 4/Project/Peripheral_Examples/Systick/stm32f0xx_it.c ****   ******************************************************************************
  28:/home/mert/dev/stm32/KON309E/Week 4/Project/Peripheral_Examples/Systick/stm32f0xx_it.c ****   */ 
  29:/home/mert/dev/stm32/KON309E/Week 4/Project/Peripheral_Examples/Systick/stm32f0xx_it.c **** 
  30:/home/mert/dev/stm32/KON309E/Week 4/Project/Peripheral_Examples/Systick/stm32f0xx_it.c **** /* Includes ------------------------------------------------------------------*/
  31:/home/mert/dev/stm32/KON309E/Week 4/Project/Peripheral_Examples/Systick/stm32f0xx_it.c **** #include "stm32f0xx_it.h"
  32:/home/mert/dev/stm32/KON309E/Week 4/Project/Peripheral_Examples/Systick/stm32f0xx_it.c **** #include "main.h"
ARM GAS  /tmp/ccl7qK7g.s 			page 2


  33:/home/mert/dev/stm32/KON309E/Week 4/Project/Peripheral_Examples/Systick/stm32f0xx_it.c **** 
  34:/home/mert/dev/stm32/KON309E/Week 4/Project/Peripheral_Examples/Systick/stm32f0xx_it.c **** /** @addtogroup STM32F0_Discovery_Peripheral_Examples
  35:/home/mert/dev/stm32/KON309E/Week 4/Project/Peripheral_Examples/Systick/stm32f0xx_it.c ****   * @{
  36:/home/mert/dev/stm32/KON309E/Week 4/Project/Peripheral_Examples/Systick/stm32f0xx_it.c ****   */
  37:/home/mert/dev/stm32/KON309E/Week 4/Project/Peripheral_Examples/Systick/stm32f0xx_it.c **** 
  38:/home/mert/dev/stm32/KON309E/Week 4/Project/Peripheral_Examples/Systick/stm32f0xx_it.c **** /** @addtogroup SysTick_Example
  39:/home/mert/dev/stm32/KON309E/Week 4/Project/Peripheral_Examples/Systick/stm32f0xx_it.c ****   * @{
  40:/home/mert/dev/stm32/KON309E/Week 4/Project/Peripheral_Examples/Systick/stm32f0xx_it.c ****   */ 
  41:/home/mert/dev/stm32/KON309E/Week 4/Project/Peripheral_Examples/Systick/stm32f0xx_it.c **** 
  42:/home/mert/dev/stm32/KON309E/Week 4/Project/Peripheral_Examples/Systick/stm32f0xx_it.c **** /* Private typedef -----------------------------------------------------------*/
  43:/home/mert/dev/stm32/KON309E/Week 4/Project/Peripheral_Examples/Systick/stm32f0xx_it.c **** /* Private define ------------------------------------------------------------*/
  44:/home/mert/dev/stm32/KON309E/Week 4/Project/Peripheral_Examples/Systick/stm32f0xx_it.c **** /* Private macro -------------------------------------------------------------*/
  45:/home/mert/dev/stm32/KON309E/Week 4/Project/Peripheral_Examples/Systick/stm32f0xx_it.c **** /* Private variables ---------------------------------------------------------*/
  46:/home/mert/dev/stm32/KON309E/Week 4/Project/Peripheral_Examples/Systick/stm32f0xx_it.c **** /* Private function prototypes -----------------------------------------------*/
  47:/home/mert/dev/stm32/KON309E/Week 4/Project/Peripheral_Examples/Systick/stm32f0xx_it.c **** /* Private functions ---------------------------------------------------------*/
  48:/home/mert/dev/stm32/KON309E/Week 4/Project/Peripheral_Examples/Systick/stm32f0xx_it.c **** 
  49:/home/mert/dev/stm32/KON309E/Week 4/Project/Peripheral_Examples/Systick/stm32f0xx_it.c **** /******************************************************************************/
  50:/home/mert/dev/stm32/KON309E/Week 4/Project/Peripheral_Examples/Systick/stm32f0xx_it.c **** /*            Cortex-M0 Processor Exceptions Handlers                         */
  51:/home/mert/dev/stm32/KON309E/Week 4/Project/Peripheral_Examples/Systick/stm32f0xx_it.c **** /******************************************************************************/
  52:/home/mert/dev/stm32/KON309E/Week 4/Project/Peripheral_Examples/Systick/stm32f0xx_it.c **** 
  53:/home/mert/dev/stm32/KON309E/Week 4/Project/Peripheral_Examples/Systick/stm32f0xx_it.c **** /**
  54:/home/mert/dev/stm32/KON309E/Week 4/Project/Peripheral_Examples/Systick/stm32f0xx_it.c ****   * @brief  This function handles NMI exception.
  55:/home/mert/dev/stm32/KON309E/Week 4/Project/Peripheral_Examples/Systick/stm32f0xx_it.c ****   * @param  None
  56:/home/mert/dev/stm32/KON309E/Week 4/Project/Peripheral_Examples/Systick/stm32f0xx_it.c ****   * @retval None
  57:/home/mert/dev/stm32/KON309E/Week 4/Project/Peripheral_Examples/Systick/stm32f0xx_it.c ****   */
  58:/home/mert/dev/stm32/KON309E/Week 4/Project/Peripheral_Examples/Systick/stm32f0xx_it.c **** void NMI_Handler(void)
  59:/home/mert/dev/stm32/KON309E/Week 4/Project/Peripheral_Examples/Systick/stm32f0xx_it.c **** {
  27              		.loc 1 59 1 view -0
  28              		.cfi_startproc
  29              		@ args = 0, pretend = 0, frame = 0
  30              		@ frame_needed = 0, uses_anonymous_args = 0
  31              		@ link register save eliminated.
  60:/home/mert/dev/stm32/KON309E/Week 4/Project/Peripheral_Examples/Systick/stm32f0xx_it.c **** }
  32              		.loc 1 60 1 view .LVU1
  33              		@ sp needed
  34 0000 7047     		bx	lr
  35              		.cfi_endproc
  36              	.LFE32:
  38              		.section	.text.HardFault_Handler,"ax",%progbits
  39              		.align	1
  40              		.global	HardFault_Handler
  41              		.syntax unified
  42              		.code	16
  43              		.thumb_func
  44              		.fpu softvfp
  46              	HardFault_Handler:
  47              	.LFB33:
  61:/home/mert/dev/stm32/KON309E/Week 4/Project/Peripheral_Examples/Systick/stm32f0xx_it.c **** 
  62:/home/mert/dev/stm32/KON309E/Week 4/Project/Peripheral_Examples/Systick/stm32f0xx_it.c **** /**
  63:/home/mert/dev/stm32/KON309E/Week 4/Project/Peripheral_Examples/Systick/stm32f0xx_it.c ****   * @brief  This function handles Hard Fault exception.
  64:/home/mert/dev/stm32/KON309E/Week 4/Project/Peripheral_Examples/Systick/stm32f0xx_it.c ****   * @param  None
  65:/home/mert/dev/stm32/KON309E/Week 4/Project/Peripheral_Examples/Systick/stm32f0xx_it.c ****   * @retval None
  66:/home/mert/dev/stm32/KON309E/Week 4/Project/Peripheral_Examples/Systick/stm32f0xx_it.c ****   */
  67:/home/mert/dev/stm32/KON309E/Week 4/Project/Peripheral_Examples/Systick/stm32f0xx_it.c **** void HardFault_Handler(void)
  68:/home/mert/dev/stm32/KON309E/Week 4/Project/Peripheral_Examples/Systick/stm32f0xx_it.c **** {
  48              		.loc 1 68 1 view -0
  49              		.cfi_startproc
ARM GAS  /tmp/ccl7qK7g.s 			page 3


  50              		@ Volatile: function does not return.
  51              		@ args = 0, pretend = 0, frame = 0
  52              		@ frame_needed = 0, uses_anonymous_args = 0
  53              		@ link register save eliminated.
  54              	.L3:
  69:/home/mert/dev/stm32/KON309E/Week 4/Project/Peripheral_Examples/Systick/stm32f0xx_it.c ****   /* Go to infinite loop when Hard Fault exception occurs */
  70:/home/mert/dev/stm32/KON309E/Week 4/Project/Peripheral_Examples/Systick/stm32f0xx_it.c ****   while (1)
  55              		.loc 1 70 3 discriminator 1 view .LVU3
  71:/home/mert/dev/stm32/KON309E/Week 4/Project/Peripheral_Examples/Systick/stm32f0xx_it.c ****   {
  72:/home/mert/dev/stm32/KON309E/Week 4/Project/Peripheral_Examples/Systick/stm32f0xx_it.c ****   }
  56              		.loc 1 72 3 discriminator 1 view .LVU4
  70:/home/mert/dev/stm32/KON309E/Week 4/Project/Peripheral_Examples/Systick/stm32f0xx_it.c ****   {
  57              		.loc 1 70 9 discriminator 1 view .LVU5
  58 0000 FEE7     		b	.L3
  59              		.cfi_endproc
  60              	.LFE33:
  62              		.section	.text.SVC_Handler,"ax",%progbits
  63              		.align	1
  64              		.global	SVC_Handler
  65              		.syntax unified
  66              		.code	16
  67              		.thumb_func
  68              		.fpu softvfp
  70              	SVC_Handler:
  71              	.LFB34:
  73:/home/mert/dev/stm32/KON309E/Week 4/Project/Peripheral_Examples/Systick/stm32f0xx_it.c **** }
  74:/home/mert/dev/stm32/KON309E/Week 4/Project/Peripheral_Examples/Systick/stm32f0xx_it.c **** 
  75:/home/mert/dev/stm32/KON309E/Week 4/Project/Peripheral_Examples/Systick/stm32f0xx_it.c **** /**
  76:/home/mert/dev/stm32/KON309E/Week 4/Project/Peripheral_Examples/Systick/stm32f0xx_it.c ****   * @brief  This function handles SVCall exception.
  77:/home/mert/dev/stm32/KON309E/Week 4/Project/Peripheral_Examples/Systick/stm32f0xx_it.c ****   * @param  None
  78:/home/mert/dev/stm32/KON309E/Week 4/Project/Peripheral_Examples/Systick/stm32f0xx_it.c ****   * @retval None
  79:/home/mert/dev/stm32/KON309E/Week 4/Project/Peripheral_Examples/Systick/stm32f0xx_it.c ****   */
  80:/home/mert/dev/stm32/KON309E/Week 4/Project/Peripheral_Examples/Systick/stm32f0xx_it.c **** void SVC_Handler(void)
  81:/home/mert/dev/stm32/KON309E/Week 4/Project/Peripheral_Examples/Systick/stm32f0xx_it.c **** {
  72              		.loc 1 81 1 view -0
  73              		.cfi_startproc
  74              		@ args = 0, pretend = 0, frame = 0
  75              		@ frame_needed = 0, uses_anonymous_args = 0
  76              		@ link register save eliminated.
  82:/home/mert/dev/stm32/KON309E/Week 4/Project/Peripheral_Examples/Systick/stm32f0xx_it.c **** }
  77              		.loc 1 82 1 view .LVU7
  78              		@ sp needed
  79 0000 7047     		bx	lr
  80              		.cfi_endproc
  81              	.LFE34:
  83              		.section	.text.PendSV_Handler,"ax",%progbits
  84              		.align	1
  85              		.global	PendSV_Handler
  86              		.syntax unified
  87              		.code	16
  88              		.thumb_func
  89              		.fpu softvfp
  91              	PendSV_Handler:
  92              	.LFB35:
  83:/home/mert/dev/stm32/KON309E/Week 4/Project/Peripheral_Examples/Systick/stm32f0xx_it.c **** 
  84:/home/mert/dev/stm32/KON309E/Week 4/Project/Peripheral_Examples/Systick/stm32f0xx_it.c **** /**
  85:/home/mert/dev/stm32/KON309E/Week 4/Project/Peripheral_Examples/Systick/stm32f0xx_it.c ****   * @brief  This function handles PendSVC exception.
ARM GAS  /tmp/ccl7qK7g.s 			page 4


  86:/home/mert/dev/stm32/KON309E/Week 4/Project/Peripheral_Examples/Systick/stm32f0xx_it.c ****   * @param  None
  87:/home/mert/dev/stm32/KON309E/Week 4/Project/Peripheral_Examples/Systick/stm32f0xx_it.c ****   * @retval None
  88:/home/mert/dev/stm32/KON309E/Week 4/Project/Peripheral_Examples/Systick/stm32f0xx_it.c ****   */
  89:/home/mert/dev/stm32/KON309E/Week 4/Project/Peripheral_Examples/Systick/stm32f0xx_it.c **** void PendSV_Handler(void)
  90:/home/mert/dev/stm32/KON309E/Week 4/Project/Peripheral_Examples/Systick/stm32f0xx_it.c **** {
  93              		.loc 1 90 1 view -0
  94              		.cfi_startproc
  95              		@ args = 0, pretend = 0, frame = 0
  96              		@ frame_needed = 0, uses_anonymous_args = 0
  97              		@ link register save eliminated.
  91:/home/mert/dev/stm32/KON309E/Week 4/Project/Peripheral_Examples/Systick/stm32f0xx_it.c **** }
  98              		.loc 1 91 1 view .LVU9
  99              		@ sp needed
 100 0000 7047     		bx	lr
 101              		.cfi_endproc
 102              	.LFE35:
 104              		.section	.text.SysTick_Handler,"ax",%progbits
 105              		.align	1
 106              		.global	SysTick_Handler
 107              		.syntax unified
 108              		.code	16
 109              		.thumb_func
 110              		.fpu softvfp
 112              	SysTick_Handler:
 113              	.LFB36:
  92:/home/mert/dev/stm32/KON309E/Week 4/Project/Peripheral_Examples/Systick/stm32f0xx_it.c **** 
  93:/home/mert/dev/stm32/KON309E/Week 4/Project/Peripheral_Examples/Systick/stm32f0xx_it.c **** /**
  94:/home/mert/dev/stm32/KON309E/Week 4/Project/Peripheral_Examples/Systick/stm32f0xx_it.c ****   * @brief  This function handles SysTick Handler.
  95:/home/mert/dev/stm32/KON309E/Week 4/Project/Peripheral_Examples/Systick/stm32f0xx_it.c ****   * @param  None
  96:/home/mert/dev/stm32/KON309E/Week 4/Project/Peripheral_Examples/Systick/stm32f0xx_it.c ****   * @retval None
  97:/home/mert/dev/stm32/KON309E/Week 4/Project/Peripheral_Examples/Systick/stm32f0xx_it.c ****   */
  98:/home/mert/dev/stm32/KON309E/Week 4/Project/Peripheral_Examples/Systick/stm32f0xx_it.c **** void SysTick_Handler(void)
  99:/home/mert/dev/stm32/KON309E/Week 4/Project/Peripheral_Examples/Systick/stm32f0xx_it.c **** {
 114              		.loc 1 99 1 view -0
 115              		.cfi_startproc
 116              		@ args = 0, pretend = 0, frame = 0
 117              		@ frame_needed = 0, uses_anonymous_args = 0
 118 0000 10B5     		push	{r4, lr}
 119              	.LCFI0:
 120              		.cfi_def_cfa_offset 8
 121              		.cfi_offset 4, -8
 122              		.cfi_offset 14, -4
 100:/home/mert/dev/stm32/KON309E/Week 4/Project/Peripheral_Examples/Systick/stm32f0xx_it.c ****   TimingDelay_Decrement();
 123              		.loc 1 100 3 view .LVU11
 124 0002 FFF7FEFF 		bl	TimingDelay_Decrement
 125              	.LVL0:
 101:/home/mert/dev/stm32/KON309E/Week 4/Project/Peripheral_Examples/Systick/stm32f0xx_it.c **** }
 126              		.loc 1 101 1 is_stmt 0 view .LVU12
 127              		@ sp needed
 128 0006 10BD     		pop	{r4, pc}
 129              		.cfi_endproc
 130              	.LFE36:
 132              		.text
 133              	.Letext0:
 134              		.file 2 "/usr/arm-none-eabi/include/machine/_default_types.h"
 135              		.file 3 "/usr/arm-none-eabi/include/sys/_stdint.h"
 136              		.file 4 "/home/mert/dev/stm32/KON309E/Week 4/Project/Peripheral_Examples/Systick/../../../Librarie
ARM GAS  /tmp/ccl7qK7g.s 			page 5


 137              		.file 5 "/home/mert/dev/stm32/KON309E/Week 4/Project/Peripheral_Examples/Systick/main.h"
ARM GAS  /tmp/ccl7qK7g.s 			page 6

