ARM GAS  /tmp/ccPO3lMn.s 			page 1


   1              		.cpu cortex-m0
   2              		.eabi_attribute 20, 1
   3              		.eabi_attribute 21, 1
   4              		.eabi_attribute 23, 3
   5              		.eabi_attribute 24, 1
   6              		.eabi_attribute 25, 1
   7              		.eabi_attribute 26, 1
   8              		.eabi_attribute 30, 1
   9              		.eabi_attribute 34, 0
  10              		.eabi_attribute 18, 4
  11              		.file	"stm32f0xx_exti.c"
  12              		.text
  13              	.Ltext0:
  14              		.cfi_sections	.debug_frame
  15              		.section	.text.EXTI_DeInit,"ax",%progbits
  16              		.align	1
  17              		.global	EXTI_DeInit
  18              		.arch armv6s-m
  19              		.syntax unified
  20              		.code	16
  21              		.thumb_func
  22              		.fpu softvfp
  24              	EXTI_DeInit:
  25              	.LFB32:
  26              		.file 1 "Libraries/STM32F0xx_StdPeriph_Driver/src/stm32f0xx_exti.c"
   1:Libraries/STM32F0xx_StdPeriph_Driver/src/stm32f0xx_exti.c **** /**
   2:Libraries/STM32F0xx_StdPeriph_Driver/src/stm32f0xx_exti.c ****   ******************************************************************************
   3:Libraries/STM32F0xx_StdPeriph_Driver/src/stm32f0xx_exti.c ****   * @file    stm32f0xx_exti.c
   4:Libraries/STM32F0xx_StdPeriph_Driver/src/stm32f0xx_exti.c ****   * @author  MCD Application Team
   5:Libraries/STM32F0xx_StdPeriph_Driver/src/stm32f0xx_exti.c ****   * @version V1.0.0
   6:Libraries/STM32F0xx_StdPeriph_Driver/src/stm32f0xx_exti.c ****   * @date    23-March-2012
   7:Libraries/STM32F0xx_StdPeriph_Driver/src/stm32f0xx_exti.c ****   * @brief   This file provides firmware functions to manage the following 
   8:Libraries/STM32F0xx_StdPeriph_Driver/src/stm32f0xx_exti.c ****   *          functionalities of the EXTI peripheral:
   9:Libraries/STM32F0xx_StdPeriph_Driver/src/stm32f0xx_exti.c ****   *           + Initialization and Configuration
  10:Libraries/STM32F0xx_StdPeriph_Driver/src/stm32f0xx_exti.c ****   *           + Interrupts and flags management
  11:Libraries/STM32F0xx_StdPeriph_Driver/src/stm32f0xx_exti.c ****   *
  12:Libraries/STM32F0xx_StdPeriph_Driver/src/stm32f0xx_exti.c ****   *  @verbatim
  13:Libraries/STM32F0xx_StdPeriph_Driver/src/stm32f0xx_exti.c ****   ==============================================================================
  14:Libraries/STM32F0xx_StdPeriph_Driver/src/stm32f0xx_exti.c ****                             ##### EXTI features ##### 
  15:Libraries/STM32F0xx_StdPeriph_Driver/src/stm32f0xx_exti.c ****   ==============================================================================
  16:Libraries/STM32F0xx_StdPeriph_Driver/src/stm32f0xx_exti.c ****     [..] External interrupt/event lines are mapped as following:
  17:Libraries/STM32F0xx_StdPeriph_Driver/src/stm32f0xx_exti.c ****          (#) All available GPIO pins are connected to the 16 external 
  18:Libraries/STM32F0xx_StdPeriph_Driver/src/stm32f0xx_exti.c ****              interrupt/event lines from EXTI0 to EXTI15.
  19:Libraries/STM32F0xx_StdPeriph_Driver/src/stm32f0xx_exti.c ****          (#) EXTI line 16 is connected to the PVD output.
  20:Libraries/STM32F0xx_StdPeriph_Driver/src/stm32f0xx_exti.c ****          (#) EXTI line 17 is connected to the RTC Alarm event.
  21:Libraries/STM32F0xx_StdPeriph_Driver/src/stm32f0xx_exti.c ****          (#) EXTI line 19 is connected to the RTC Tamper and TimeStamp events
  22:Libraries/STM32F0xx_StdPeriph_Driver/src/stm32f0xx_exti.c ****          (#) EXTI line 21 is connected to the Comparator 1 wakeup event 
  23:Libraries/STM32F0xx_StdPeriph_Driver/src/stm32f0xx_exti.c ****          (#) EXTI line 22 is connected to the Comparator 2 wakeup event
  24:Libraries/STM32F0xx_StdPeriph_Driver/src/stm32f0xx_exti.c ****          (#) EXTI line 23 is connected to the I2C1 wakeup event
  25:Libraries/STM32F0xx_StdPeriph_Driver/src/stm32f0xx_exti.c ****          (#) EXTI line 25 is connected to the USART1 wakeup event
  26:Libraries/STM32F0xx_StdPeriph_Driver/src/stm32f0xx_exti.c ****          (#) EXTI line 27 is connected to the CEC wakeup event
  27:Libraries/STM32F0xx_StdPeriph_Driver/src/stm32f0xx_exti.c **** 
  28:Libraries/STM32F0xx_StdPeriph_Driver/src/stm32f0xx_exti.c ****                        ##### How to use this driver ##### 
  29:Libraries/STM32F0xx_StdPeriph_Driver/src/stm32f0xx_exti.c ****   ==============================================================================
  30:Libraries/STM32F0xx_StdPeriph_Driver/src/stm32f0xx_exti.c ****     [..] In order to use an I/O pin as an external interrupt source, follow
  31:Libraries/STM32F0xx_StdPeriph_Driver/src/stm32f0xx_exti.c ****          steps below:
  32:Libraries/STM32F0xx_StdPeriph_Driver/src/stm32f0xx_exti.c ****     (#) Configure the I/O in input mode using GPIO_Init()
ARM GAS  /tmp/ccPO3lMn.s 			page 2


  33:Libraries/STM32F0xx_StdPeriph_Driver/src/stm32f0xx_exti.c ****     (#) Select the input source pin for the EXTI line using 
  34:Libraries/STM32F0xx_StdPeriph_Driver/src/stm32f0xx_exti.c ****         SYSCFG_EXTILineConfig().
  35:Libraries/STM32F0xx_StdPeriph_Driver/src/stm32f0xx_exti.c ****     (#) Select the mode(interrupt, event) and configure the trigger selection 
  36:Libraries/STM32F0xx_StdPeriph_Driver/src/stm32f0xx_exti.c ****        (Rising, falling or both) using EXTI_Init(). For the internal interrupt,
  37:Libraries/STM32F0xx_StdPeriph_Driver/src/stm32f0xx_exti.c ****        the trigger selection is not needed( the active edge is always the rising one).
  38:Libraries/STM32F0xx_StdPeriph_Driver/src/stm32f0xx_exti.c ****     (#) Configure NVIC IRQ channel mapped to the EXTI line using NVIC_Init().
  39:Libraries/STM32F0xx_StdPeriph_Driver/src/stm32f0xx_exti.c ****     (#) Optionally, you can generate a software interrupt using the function EXTI_GenerateSWInterru
  40:Libraries/STM32F0xx_StdPeriph_Driver/src/stm32f0xx_exti.c ****     [..]
  41:Libraries/STM32F0xx_StdPeriph_Driver/src/stm32f0xx_exti.c ****     (@) SYSCFG APB clock must be enabled to get write access to SYSCFG_EXTICRx
  42:Libraries/STM32F0xx_StdPeriph_Driver/src/stm32f0xx_exti.c ****       registers using RCC_APB2PeriphClockCmd(RCC_APB2Periph_SYSCFG, ENABLE);
  43:Libraries/STM32F0xx_StdPeriph_Driver/src/stm32f0xx_exti.c ****     @endverbatim
  44:Libraries/STM32F0xx_StdPeriph_Driver/src/stm32f0xx_exti.c ****   *
  45:Libraries/STM32F0xx_StdPeriph_Driver/src/stm32f0xx_exti.c ****   ******************************************************************************
  46:Libraries/STM32F0xx_StdPeriph_Driver/src/stm32f0xx_exti.c ****   * @attention
  47:Libraries/STM32F0xx_StdPeriph_Driver/src/stm32f0xx_exti.c ****   *
  48:Libraries/STM32F0xx_StdPeriph_Driver/src/stm32f0xx_exti.c ****   * <h2><center>&copy; COPYRIGHT 2012 STMicroelectronics</center></h2>
  49:Libraries/STM32F0xx_StdPeriph_Driver/src/stm32f0xx_exti.c ****   *
  50:Libraries/STM32F0xx_StdPeriph_Driver/src/stm32f0xx_exti.c ****   * Licensed under MCD-ST Liberty SW License Agreement V2, (the "License");
  51:Libraries/STM32F0xx_StdPeriph_Driver/src/stm32f0xx_exti.c ****   * You may not use this file except in compliance with the License.
  52:Libraries/STM32F0xx_StdPeriph_Driver/src/stm32f0xx_exti.c ****   * You may obtain a copy of the License at:
  53:Libraries/STM32F0xx_StdPeriph_Driver/src/stm32f0xx_exti.c ****   *
  54:Libraries/STM32F0xx_StdPeriph_Driver/src/stm32f0xx_exti.c ****   *        http://www.st.com/software_license_agreement_liberty_v2
  55:Libraries/STM32F0xx_StdPeriph_Driver/src/stm32f0xx_exti.c ****   *
  56:Libraries/STM32F0xx_StdPeriph_Driver/src/stm32f0xx_exti.c ****   * Unless required by applicable law or agreed to in writing, software 
  57:Libraries/STM32F0xx_StdPeriph_Driver/src/stm32f0xx_exti.c ****   * distributed under the License is distributed on an "AS IS" BASIS, 
  58:Libraries/STM32F0xx_StdPeriph_Driver/src/stm32f0xx_exti.c ****   * WITHOUT WARRANTIES OR CONDITIONS OF ANY KIND, either express or implied.
  59:Libraries/STM32F0xx_StdPeriph_Driver/src/stm32f0xx_exti.c ****   * See the License for the specific language governing permissions and
  60:Libraries/STM32F0xx_StdPeriph_Driver/src/stm32f0xx_exti.c ****   * limitations under the License.
  61:Libraries/STM32F0xx_StdPeriph_Driver/src/stm32f0xx_exti.c ****   *
  62:Libraries/STM32F0xx_StdPeriph_Driver/src/stm32f0xx_exti.c ****   ******************************************************************************
  63:Libraries/STM32F0xx_StdPeriph_Driver/src/stm32f0xx_exti.c ****   */
  64:Libraries/STM32F0xx_StdPeriph_Driver/src/stm32f0xx_exti.c **** 
  65:Libraries/STM32F0xx_StdPeriph_Driver/src/stm32f0xx_exti.c **** /* Includes ------------------------------------------------------------------*/
  66:Libraries/STM32F0xx_StdPeriph_Driver/src/stm32f0xx_exti.c **** #include "stm32f0xx_exti.h"
  67:Libraries/STM32F0xx_StdPeriph_Driver/src/stm32f0xx_exti.c **** 
  68:Libraries/STM32F0xx_StdPeriph_Driver/src/stm32f0xx_exti.c **** /** @addtogroup STM32F0xx_StdPeriph_Driver
  69:Libraries/STM32F0xx_StdPeriph_Driver/src/stm32f0xx_exti.c ****   * @{
  70:Libraries/STM32F0xx_StdPeriph_Driver/src/stm32f0xx_exti.c ****   */
  71:Libraries/STM32F0xx_StdPeriph_Driver/src/stm32f0xx_exti.c **** 
  72:Libraries/STM32F0xx_StdPeriph_Driver/src/stm32f0xx_exti.c **** /** @defgroup EXTI 
  73:Libraries/STM32F0xx_StdPeriph_Driver/src/stm32f0xx_exti.c ****   * @brief EXTI driver modules
  74:Libraries/STM32F0xx_StdPeriph_Driver/src/stm32f0xx_exti.c ****   * @{
  75:Libraries/STM32F0xx_StdPeriph_Driver/src/stm32f0xx_exti.c ****   */
  76:Libraries/STM32F0xx_StdPeriph_Driver/src/stm32f0xx_exti.c **** 
  77:Libraries/STM32F0xx_StdPeriph_Driver/src/stm32f0xx_exti.c **** /* Private typedef -----------------------------------------------------------*/
  78:Libraries/STM32F0xx_StdPeriph_Driver/src/stm32f0xx_exti.c **** /* Private define ------------------------------------------------------------*/
  79:Libraries/STM32F0xx_StdPeriph_Driver/src/stm32f0xx_exti.c **** #define EXTI_LINENONE     ((uint32_t)0x00000)        /* No interrupt selected */
  80:Libraries/STM32F0xx_StdPeriph_Driver/src/stm32f0xx_exti.c **** 
  81:Libraries/STM32F0xx_StdPeriph_Driver/src/stm32f0xx_exti.c **** /* Private macro -------------------------------------------------------------*/
  82:Libraries/STM32F0xx_StdPeriph_Driver/src/stm32f0xx_exti.c **** /* Private variables ---------------------------------------------------------*/
  83:Libraries/STM32F0xx_StdPeriph_Driver/src/stm32f0xx_exti.c **** /* Private function prototypes -----------------------------------------------*/
  84:Libraries/STM32F0xx_StdPeriph_Driver/src/stm32f0xx_exti.c **** /* Private functions ---------------------------------------------------------*/
  85:Libraries/STM32F0xx_StdPeriph_Driver/src/stm32f0xx_exti.c **** 
  86:Libraries/STM32F0xx_StdPeriph_Driver/src/stm32f0xx_exti.c **** /** @defgroup EXTI_Private_Functions
  87:Libraries/STM32F0xx_StdPeriph_Driver/src/stm32f0xx_exti.c ****   * @{
  88:Libraries/STM32F0xx_StdPeriph_Driver/src/stm32f0xx_exti.c ****   */
  89:Libraries/STM32F0xx_StdPeriph_Driver/src/stm32f0xx_exti.c **** 
ARM GAS  /tmp/ccPO3lMn.s 			page 3


  90:Libraries/STM32F0xx_StdPeriph_Driver/src/stm32f0xx_exti.c **** /** @defgroup EXTI_Group1 Initialization and Configuration functions
  91:Libraries/STM32F0xx_StdPeriph_Driver/src/stm32f0xx_exti.c ****  *  @brief   Initialization and Configuration functions 
  92:Libraries/STM32F0xx_StdPeriph_Driver/src/stm32f0xx_exti.c ****  *
  93:Libraries/STM32F0xx_StdPeriph_Driver/src/stm32f0xx_exti.c **** @verbatim   
  94:Libraries/STM32F0xx_StdPeriph_Driver/src/stm32f0xx_exti.c ****   ==============================================================================
  95:Libraries/STM32F0xx_StdPeriph_Driver/src/stm32f0xx_exti.c ****             ##### Initialization and Configuration functions #####
  96:Libraries/STM32F0xx_StdPeriph_Driver/src/stm32f0xx_exti.c ****   ==============================================================================
  97:Libraries/STM32F0xx_StdPeriph_Driver/src/stm32f0xx_exti.c **** 
  98:Libraries/STM32F0xx_StdPeriph_Driver/src/stm32f0xx_exti.c **** @endverbatim
  99:Libraries/STM32F0xx_StdPeriph_Driver/src/stm32f0xx_exti.c ****   * @{
 100:Libraries/STM32F0xx_StdPeriph_Driver/src/stm32f0xx_exti.c ****   */
 101:Libraries/STM32F0xx_StdPeriph_Driver/src/stm32f0xx_exti.c **** 
 102:Libraries/STM32F0xx_StdPeriph_Driver/src/stm32f0xx_exti.c **** /**
 103:Libraries/STM32F0xx_StdPeriph_Driver/src/stm32f0xx_exti.c ****   * @brief  Deinitializes the EXTI peripheral registers to their default reset 
 104:Libraries/STM32F0xx_StdPeriph_Driver/src/stm32f0xx_exti.c ****   *         values.
 105:Libraries/STM32F0xx_StdPeriph_Driver/src/stm32f0xx_exti.c ****   * @param  None
 106:Libraries/STM32F0xx_StdPeriph_Driver/src/stm32f0xx_exti.c ****   * @retval None
 107:Libraries/STM32F0xx_StdPeriph_Driver/src/stm32f0xx_exti.c ****   */
 108:Libraries/STM32F0xx_StdPeriph_Driver/src/stm32f0xx_exti.c **** void EXTI_DeInit(void)
 109:Libraries/STM32F0xx_StdPeriph_Driver/src/stm32f0xx_exti.c **** {
  27              		.loc 1 109 1 view -0
  28              		.cfi_startproc
  29              		@ args = 0, pretend = 0, frame = 0
  30              		@ frame_needed = 0, uses_anonymous_args = 0
  31              		@ link register save eliminated.
 110:Libraries/STM32F0xx_StdPeriph_Driver/src/stm32f0xx_exti.c ****   EXTI->IMR = 0x0F940000;
  32              		.loc 1 110 3 view .LVU1
  33              		.loc 1 110 13 is_stmt 0 view .LVU2
  34 0000 044B     		ldr	r3, .L2
  35 0002 054A     		ldr	r2, .L2+4
  36 0004 1A60     		str	r2, [r3]
 111:Libraries/STM32F0xx_StdPeriph_Driver/src/stm32f0xx_exti.c ****   EXTI->EMR = 0x00000000;
  37              		.loc 1 111 3 is_stmt 1 view .LVU3
  38              		.loc 1 111 13 is_stmt 0 view .LVU4
  39 0006 0022     		movs	r2, #0
  40 0008 5A60     		str	r2, [r3, #4]
 112:Libraries/STM32F0xx_StdPeriph_Driver/src/stm32f0xx_exti.c ****   EXTI->RTSR = 0x00000000;
  41              		.loc 1 112 3 is_stmt 1 view .LVU5
  42              		.loc 1 112 14 is_stmt 0 view .LVU6
  43 000a 9A60     		str	r2, [r3, #8]
 113:Libraries/STM32F0xx_StdPeriph_Driver/src/stm32f0xx_exti.c ****   EXTI->FTSR = 0x00000000;
  44              		.loc 1 113 3 is_stmt 1 view .LVU7
  45              		.loc 1 113 14 is_stmt 0 view .LVU8
  46 000c DA60     		str	r2, [r3, #12]
 114:Libraries/STM32F0xx_StdPeriph_Driver/src/stm32f0xx_exti.c ****   EXTI->PR = 0x006BFFFF;
  47              		.loc 1 114 3 is_stmt 1 view .LVU9
  48              		.loc 1 114 12 is_stmt 0 view .LVU10
  49 000e 034A     		ldr	r2, .L2+8
  50 0010 5A61     		str	r2, [r3, #20]
 115:Libraries/STM32F0xx_StdPeriph_Driver/src/stm32f0xx_exti.c **** }
  51              		.loc 1 115 1 view .LVU11
  52              		@ sp needed
  53 0012 7047     		bx	lr
  54              	.L3:
  55              		.align	2
  56              	.L2:
  57 0014 00040140 		.word	1073808384
ARM GAS  /tmp/ccPO3lMn.s 			page 4


  58 0018 0000940F 		.word	261357568
  59 001c FFFF6B00 		.word	7077887
  60              		.cfi_endproc
  61              	.LFE32:
  63              		.section	.text.EXTI_Init,"ax",%progbits
  64              		.align	1
  65              		.global	EXTI_Init
  66              		.syntax unified
  67              		.code	16
  68              		.thumb_func
  69              		.fpu softvfp
  71              	EXTI_Init:
  72              	.LVL0:
  73              	.LFB33:
 116:Libraries/STM32F0xx_StdPeriph_Driver/src/stm32f0xx_exti.c **** 
 117:Libraries/STM32F0xx_StdPeriph_Driver/src/stm32f0xx_exti.c **** /**
 118:Libraries/STM32F0xx_StdPeriph_Driver/src/stm32f0xx_exti.c ****   * @brief  Initializes the EXTI peripheral according to the specified
 119:Libraries/STM32F0xx_StdPeriph_Driver/src/stm32f0xx_exti.c ****   *         parameters in the EXTI_InitStruct.
 120:Libraries/STM32F0xx_StdPeriph_Driver/src/stm32f0xx_exti.c ****   *    EXTI_Line specifies the EXTI line (EXTI0....EXTI27).
 121:Libraries/STM32F0xx_StdPeriph_Driver/src/stm32f0xx_exti.c ****   *    EXTI_Mode specifies which EXTI line is used as interrupt or an event.
 122:Libraries/STM32F0xx_StdPeriph_Driver/src/stm32f0xx_exti.c ****   *    EXTI_Trigger selects the trigger. When the trigger occurs, interrupt
 123:Libraries/STM32F0xx_StdPeriph_Driver/src/stm32f0xx_exti.c ****   *                 pending bit will be set.
 124:Libraries/STM32F0xx_StdPeriph_Driver/src/stm32f0xx_exti.c ****   *    EXTI_LineCmd controls (Enable/Disable) the EXTI line.
 125:Libraries/STM32F0xx_StdPeriph_Driver/src/stm32f0xx_exti.c ****   * @param  EXTI_InitStruct: pointer to a EXTI_InitTypeDef structure that 
 126:Libraries/STM32F0xx_StdPeriph_Driver/src/stm32f0xx_exti.c ****   *         contains the configuration information for the EXTI peripheral.
 127:Libraries/STM32F0xx_StdPeriph_Driver/src/stm32f0xx_exti.c ****   * @retval None
 128:Libraries/STM32F0xx_StdPeriph_Driver/src/stm32f0xx_exti.c ****   */
 129:Libraries/STM32F0xx_StdPeriph_Driver/src/stm32f0xx_exti.c **** void EXTI_Init(EXTI_InitTypeDef* EXTI_InitStruct)
 130:Libraries/STM32F0xx_StdPeriph_Driver/src/stm32f0xx_exti.c **** {
  74              		.loc 1 130 1 is_stmt 1 view -0
  75              		.cfi_startproc
  76              		@ args = 0, pretend = 0, frame = 0
  77              		@ frame_needed = 0, uses_anonymous_args = 0
  78              		.loc 1 130 1 is_stmt 0 view .LVU13
  79 0000 10B5     		push	{r4, lr}
  80              	.LCFI0:
  81              		.cfi_def_cfa_offset 8
  82              		.cfi_offset 4, -8
  83              		.cfi_offset 14, -4
 131:Libraries/STM32F0xx_StdPeriph_Driver/src/stm32f0xx_exti.c ****   uint32_t tmp = 0;
  84              		.loc 1 131 3 is_stmt 1 view .LVU14
  85              	.LVL1:
 132:Libraries/STM32F0xx_StdPeriph_Driver/src/stm32f0xx_exti.c **** 
 133:Libraries/STM32F0xx_StdPeriph_Driver/src/stm32f0xx_exti.c ****   /* Check the parameters */
 134:Libraries/STM32F0xx_StdPeriph_Driver/src/stm32f0xx_exti.c ****   assert_param(IS_EXTI_MODE(EXTI_InitStruct->EXTI_Mode));
  86              		.loc 1 134 3 view .LVU15
 135:Libraries/STM32F0xx_StdPeriph_Driver/src/stm32f0xx_exti.c ****   assert_param(IS_EXTI_TRIGGER(EXTI_InitStruct->EXTI_Trigger));
  87              		.loc 1 135 3 view .LVU16
 136:Libraries/STM32F0xx_StdPeriph_Driver/src/stm32f0xx_exti.c ****   assert_param(IS_EXTI_LINE(EXTI_InitStruct->EXTI_Line));
  88              		.loc 1 136 3 view .LVU17
 137:Libraries/STM32F0xx_StdPeriph_Driver/src/stm32f0xx_exti.c ****   assert_param(IS_FUNCTIONAL_STATE(EXTI_InitStruct->EXTI_LineCmd));
  89              		.loc 1 137 3 view .LVU18
 138:Libraries/STM32F0xx_StdPeriph_Driver/src/stm32f0xx_exti.c **** 
 139:Libraries/STM32F0xx_StdPeriph_Driver/src/stm32f0xx_exti.c ****   tmp = (uint32_t)EXTI_BASE;
  90              		.loc 1 139 3 view .LVU19
 140:Libraries/STM32F0xx_StdPeriph_Driver/src/stm32f0xx_exti.c **** 
 141:Libraries/STM32F0xx_StdPeriph_Driver/src/stm32f0xx_exti.c ****   if (EXTI_InitStruct->EXTI_LineCmd != DISABLE)
ARM GAS  /tmp/ccPO3lMn.s 			page 5


  91              		.loc 1 141 3 view .LVU20
  92              		.loc 1 141 22 is_stmt 0 view .LVU21
  93 0002 8379     		ldrb	r3, [r0, #6]
  94              		.loc 1 141 6 view .LVU22
  95 0004 002B     		cmp	r3, #0
  96 0006 2CD0     		beq	.L5
 142:Libraries/STM32F0xx_StdPeriph_Driver/src/stm32f0xx_exti.c ****   {
 143:Libraries/STM32F0xx_StdPeriph_Driver/src/stm32f0xx_exti.c ****     /* Clear EXTI line configuration */
 144:Libraries/STM32F0xx_StdPeriph_Driver/src/stm32f0xx_exti.c ****     EXTI->IMR &= ~EXTI_InitStruct->EXTI_Line;
  97              		.loc 1 144 5 is_stmt 1 view .LVU23
  98              		.loc 1 144 15 is_stmt 0 view .LVU24
  99 0008 1A4B     		ldr	r3, .L9
 100 000a 1A68     		ldr	r2, [r3]
 101 000c 0168     		ldr	r1, [r0]
 102 000e 8A43     		bics	r2, r1
 103 0010 1A60     		str	r2, [r3]
 145:Libraries/STM32F0xx_StdPeriph_Driver/src/stm32f0xx_exti.c ****     EXTI->EMR &= ~EXTI_InitStruct->EXTI_Line;
 104              		.loc 1 145 5 is_stmt 1 view .LVU25
 105              		.loc 1 145 15 is_stmt 0 view .LVU26
 106 0012 5A68     		ldr	r2, [r3, #4]
 107 0014 0168     		ldr	r1, [r0]
 108 0016 8A43     		bics	r2, r1
 109 0018 5A60     		str	r2, [r3, #4]
 146:Libraries/STM32F0xx_StdPeriph_Driver/src/stm32f0xx_exti.c **** 
 147:Libraries/STM32F0xx_StdPeriph_Driver/src/stm32f0xx_exti.c ****     tmp += EXTI_InitStruct->EXTI_Mode;
 110              		.loc 1 147 5 is_stmt 1 view .LVU27
 111              		.loc 1 147 27 is_stmt 0 view .LVU28
 112 001a 0279     		ldrb	r2, [r0, #4]
 113              		.loc 1 147 9 view .LVU29
 114 001c 9C46     		mov	ip, r3
 115 001e 6244     		add	r2, r2, ip
 116              	.LVL2:
 148:Libraries/STM32F0xx_StdPeriph_Driver/src/stm32f0xx_exti.c **** 
 149:Libraries/STM32F0xx_StdPeriph_Driver/src/stm32f0xx_exti.c ****     *(__IO uint32_t *) tmp |= EXTI_InitStruct->EXTI_Line;
 117              		.loc 1 149 5 is_stmt 1 view .LVU30
 118              		.loc 1 149 28 is_stmt 0 view .LVU31
 119 0020 1168     		ldr	r1, [r2]
 120 0022 0468     		ldr	r4, [r0]
 121 0024 2143     		orrs	r1, r4
 122 0026 1160     		str	r1, [r2]
 150:Libraries/STM32F0xx_StdPeriph_Driver/src/stm32f0xx_exti.c **** 
 151:Libraries/STM32F0xx_StdPeriph_Driver/src/stm32f0xx_exti.c ****     /* Clear Rising Falling edge configuration */
 152:Libraries/STM32F0xx_StdPeriph_Driver/src/stm32f0xx_exti.c ****     EXTI->RTSR &= ~EXTI_InitStruct->EXTI_Line;
 123              		.loc 1 152 5 is_stmt 1 view .LVU32
 124              		.loc 1 152 16 is_stmt 0 view .LVU33
 125 0028 9A68     		ldr	r2, [r3, #8]
 126              	.LVL3:
 127              		.loc 1 152 16 view .LVU34
 128 002a 0168     		ldr	r1, [r0]
 129 002c 8A43     		bics	r2, r1
 130 002e 9A60     		str	r2, [r3, #8]
 153:Libraries/STM32F0xx_StdPeriph_Driver/src/stm32f0xx_exti.c ****     EXTI->FTSR &= ~EXTI_InitStruct->EXTI_Line;
 131              		.loc 1 153 5 is_stmt 1 view .LVU35
 132              		.loc 1 153 16 is_stmt 0 view .LVU36
 133 0030 DA68     		ldr	r2, [r3, #12]
 134 0032 0168     		ldr	r1, [r0]
 135 0034 8A43     		bics	r2, r1
ARM GAS  /tmp/ccPO3lMn.s 			page 6


 136 0036 DA60     		str	r2, [r3, #12]
 154:Libraries/STM32F0xx_StdPeriph_Driver/src/stm32f0xx_exti.c **** 
 155:Libraries/STM32F0xx_StdPeriph_Driver/src/stm32f0xx_exti.c ****     /* Select the trigger for the selected interrupts */
 156:Libraries/STM32F0xx_StdPeriph_Driver/src/stm32f0xx_exti.c ****     if (EXTI_InitStruct->EXTI_Trigger == EXTI_Trigger_Rising_Falling)
 137              		.loc 1 156 5 is_stmt 1 view .LVU37
 138              		.loc 1 156 24 is_stmt 0 view .LVU38
 139 0038 4379     		ldrb	r3, [r0, #5]
 140              		.loc 1 156 8 view .LVU39
 141 003a 102B     		cmp	r3, #16
 142 003c 07D0     		beq	.L8
 157:Libraries/STM32F0xx_StdPeriph_Driver/src/stm32f0xx_exti.c ****     {
 158:Libraries/STM32F0xx_StdPeriph_Driver/src/stm32f0xx_exti.c ****       /* Rising Falling edge */
 159:Libraries/STM32F0xx_StdPeriph_Driver/src/stm32f0xx_exti.c ****       EXTI->RTSR |= EXTI_InitStruct->EXTI_Line;
 160:Libraries/STM32F0xx_StdPeriph_Driver/src/stm32f0xx_exti.c ****       EXTI->FTSR |= EXTI_InitStruct->EXTI_Line;
 161:Libraries/STM32F0xx_StdPeriph_Driver/src/stm32f0xx_exti.c ****     }
 162:Libraries/STM32F0xx_StdPeriph_Driver/src/stm32f0xx_exti.c ****     else
 163:Libraries/STM32F0xx_StdPeriph_Driver/src/stm32f0xx_exti.c ****     {
 164:Libraries/STM32F0xx_StdPeriph_Driver/src/stm32f0xx_exti.c ****       tmp = (uint32_t)EXTI_BASE;
 143              		.loc 1 164 7 is_stmt 1 view .LVU40
 144              	.LVL4:
 165:Libraries/STM32F0xx_StdPeriph_Driver/src/stm32f0xx_exti.c ****       tmp += EXTI_InitStruct->EXTI_Trigger;
 145              		.loc 1 165 7 view .LVU41
 146              		.loc 1 165 11 is_stmt 0 view .LVU42
 147 003e 0D4A     		ldr	r2, .L9
 148 0040 9446     		mov	ip, r2
 149 0042 6344     		add	r3, r3, ip
 150              	.LVL5:
 166:Libraries/STM32F0xx_StdPeriph_Driver/src/stm32f0xx_exti.c **** 
 167:Libraries/STM32F0xx_StdPeriph_Driver/src/stm32f0xx_exti.c ****       *(__IO uint32_t *) tmp |= EXTI_InitStruct->EXTI_Line;
 151              		.loc 1 167 7 is_stmt 1 view .LVU43
 152              		.loc 1 167 30 is_stmt 0 view .LVU44
 153 0044 1A68     		ldr	r2, [r3]
 154              		.loc 1 167 48 view .LVU45
 155 0046 0168     		ldr	r1, [r0]
 156              		.loc 1 167 30 view .LVU46
 157 0048 0A43     		orrs	r2, r1
 158 004a 1A60     		str	r2, [r3]
 159 004c 11E0     		b	.L4
 160              	.LVL6:
 161              	.L8:
 159:Libraries/STM32F0xx_StdPeriph_Driver/src/stm32f0xx_exti.c ****       EXTI->FTSR |= EXTI_InitStruct->EXTI_Line;
 162              		.loc 1 159 7 is_stmt 1 view .LVU47
 159:Libraries/STM32F0xx_StdPeriph_Driver/src/stm32f0xx_exti.c ****       EXTI->FTSR |= EXTI_InitStruct->EXTI_Line;
 163              		.loc 1 159 18 is_stmt 0 view .LVU48
 164 004e 6346     		mov	r3, ip
 165 0050 9A68     		ldr	r2, [r3, #8]
 166 0052 0168     		ldr	r1, [r0]
 167 0054 0A43     		orrs	r2, r1
 168 0056 9A60     		str	r2, [r3, #8]
 160:Libraries/STM32F0xx_StdPeriph_Driver/src/stm32f0xx_exti.c ****     }
 169              		.loc 1 160 7 is_stmt 1 view .LVU49
 160:Libraries/STM32F0xx_StdPeriph_Driver/src/stm32f0xx_exti.c ****     }
 170              		.loc 1 160 18 is_stmt 0 view .LVU50
 171 0058 DA68     		ldr	r2, [r3, #12]
 160:Libraries/STM32F0xx_StdPeriph_Driver/src/stm32f0xx_exti.c ****     }
 172              		.loc 1 160 36 view .LVU51
 173 005a 0168     		ldr	r1, [r0]
ARM GAS  /tmp/ccPO3lMn.s 			page 7


 160:Libraries/STM32F0xx_StdPeriph_Driver/src/stm32f0xx_exti.c ****     }
 174              		.loc 1 160 18 view .LVU52
 175 005c 0A43     		orrs	r2, r1
 176 005e DA60     		str	r2, [r3, #12]
 177 0060 07E0     		b	.L4
 178              	.LVL7:
 179              	.L5:
 168:Libraries/STM32F0xx_StdPeriph_Driver/src/stm32f0xx_exti.c ****     }
 169:Libraries/STM32F0xx_StdPeriph_Driver/src/stm32f0xx_exti.c ****   }
 170:Libraries/STM32F0xx_StdPeriph_Driver/src/stm32f0xx_exti.c ****   else
 171:Libraries/STM32F0xx_StdPeriph_Driver/src/stm32f0xx_exti.c ****   {
 172:Libraries/STM32F0xx_StdPeriph_Driver/src/stm32f0xx_exti.c ****     tmp += EXTI_InitStruct->EXTI_Mode;
 180              		.loc 1 172 5 is_stmt 1 view .LVU53
 181              		.loc 1 172 27 is_stmt 0 view .LVU54
 182 0062 0379     		ldrb	r3, [r0, #4]
 183              		.loc 1 172 9 view .LVU55
 184 0064 034A     		ldr	r2, .L9
 185 0066 9446     		mov	ip, r2
 186 0068 6344     		add	r3, r3, ip
 187              	.LVL8:
 173:Libraries/STM32F0xx_StdPeriph_Driver/src/stm32f0xx_exti.c **** 
 174:Libraries/STM32F0xx_StdPeriph_Driver/src/stm32f0xx_exti.c ****     /* Disable the selected external lines */
 175:Libraries/STM32F0xx_StdPeriph_Driver/src/stm32f0xx_exti.c ****     *(__IO uint32_t *) tmp &= ~EXTI_InitStruct->EXTI_Line;
 188              		.loc 1 175 5 is_stmt 1 view .LVU56
 189              		.loc 1 175 28 is_stmt 0 view .LVU57
 190 006a 1A68     		ldr	r2, [r3]
 191              		.loc 1 175 47 view .LVU58
 192 006c 0168     		ldr	r1, [r0]
 193              		.loc 1 175 28 view .LVU59
 194 006e 8A43     		bics	r2, r1
 195 0070 1A60     		str	r2, [r3]
 196              	.LVL9:
 197              	.L4:
 176:Libraries/STM32F0xx_StdPeriph_Driver/src/stm32f0xx_exti.c ****   }
 177:Libraries/STM32F0xx_StdPeriph_Driver/src/stm32f0xx_exti.c **** }
 198              		.loc 1 177 1 view .LVU60
 199              		@ sp needed
 200 0072 10BD     		pop	{r4, pc}
 201              	.L10:
 202              		.align	2
 203              	.L9:
 204 0074 00040140 		.word	1073808384
 205              		.cfi_endproc
 206              	.LFE33:
 208              		.section	.text.EXTI_StructInit,"ax",%progbits
 209              		.align	1
 210              		.global	EXTI_StructInit
 211              		.syntax unified
 212              		.code	16
 213              		.thumb_func
 214              		.fpu softvfp
 216              	EXTI_StructInit:
 217              	.LVL10:
 218              	.LFB34:
 178:Libraries/STM32F0xx_StdPeriph_Driver/src/stm32f0xx_exti.c **** 
 179:Libraries/STM32F0xx_StdPeriph_Driver/src/stm32f0xx_exti.c **** /**
 180:Libraries/STM32F0xx_StdPeriph_Driver/src/stm32f0xx_exti.c ****   * @brief  Fills each EXTI_InitStruct member with its reset value.
ARM GAS  /tmp/ccPO3lMn.s 			page 8


 181:Libraries/STM32F0xx_StdPeriph_Driver/src/stm32f0xx_exti.c ****   * @param  EXTI_InitStruct: pointer to a EXTI_InitTypeDef structure which will
 182:Libraries/STM32F0xx_StdPeriph_Driver/src/stm32f0xx_exti.c ****   *         be initialized.
 183:Libraries/STM32F0xx_StdPeriph_Driver/src/stm32f0xx_exti.c ****   * @retval None
 184:Libraries/STM32F0xx_StdPeriph_Driver/src/stm32f0xx_exti.c ****   */
 185:Libraries/STM32F0xx_StdPeriph_Driver/src/stm32f0xx_exti.c **** void EXTI_StructInit(EXTI_InitTypeDef* EXTI_InitStruct)
 186:Libraries/STM32F0xx_StdPeriph_Driver/src/stm32f0xx_exti.c **** {
 219              		.loc 1 186 1 is_stmt 1 view -0
 220              		.cfi_startproc
 221              		@ args = 0, pretend = 0, frame = 0
 222              		@ frame_needed = 0, uses_anonymous_args = 0
 223              		@ link register save eliminated.
 187:Libraries/STM32F0xx_StdPeriph_Driver/src/stm32f0xx_exti.c ****   EXTI_InitStruct->EXTI_Line = EXTI_LINENONE;
 224              		.loc 1 187 3 view .LVU62
 225              		.loc 1 187 30 is_stmt 0 view .LVU63
 226 0000 0023     		movs	r3, #0
 227 0002 0360     		str	r3, [r0]
 188:Libraries/STM32F0xx_StdPeriph_Driver/src/stm32f0xx_exti.c ****   EXTI_InitStruct->EXTI_Mode = EXTI_Mode_Interrupt;
 228              		.loc 1 188 3 is_stmt 1 view .LVU64
 229              		.loc 1 188 30 is_stmt 0 view .LVU65
 230 0004 0371     		strb	r3, [r0, #4]
 189:Libraries/STM32F0xx_StdPeriph_Driver/src/stm32f0xx_exti.c ****   EXTI_InitStruct->EXTI_Trigger = EXTI_Trigger_Falling;
 231              		.loc 1 189 3 is_stmt 1 view .LVU66
 232              		.loc 1 189 33 is_stmt 0 view .LVU67
 233 0006 0C22     		movs	r2, #12
 234 0008 4271     		strb	r2, [r0, #5]
 190:Libraries/STM32F0xx_StdPeriph_Driver/src/stm32f0xx_exti.c ****   EXTI_InitStruct->EXTI_LineCmd = DISABLE;
 235              		.loc 1 190 3 is_stmt 1 view .LVU68
 236              		.loc 1 190 33 is_stmt 0 view .LVU69
 237 000a 8371     		strb	r3, [r0, #6]
 191:Libraries/STM32F0xx_StdPeriph_Driver/src/stm32f0xx_exti.c **** }
 238              		.loc 1 191 1 view .LVU70
 239              		@ sp needed
 240 000c 7047     		bx	lr
 241              		.cfi_endproc
 242              	.LFE34:
 244              		.section	.text.EXTI_GenerateSWInterrupt,"ax",%progbits
 245              		.align	1
 246              		.global	EXTI_GenerateSWInterrupt
 247              		.syntax unified
 248              		.code	16
 249              		.thumb_func
 250              		.fpu softvfp
 252              	EXTI_GenerateSWInterrupt:
 253              	.LVL11:
 254              	.LFB35:
 192:Libraries/STM32F0xx_StdPeriph_Driver/src/stm32f0xx_exti.c **** 
 193:Libraries/STM32F0xx_StdPeriph_Driver/src/stm32f0xx_exti.c **** /**
 194:Libraries/STM32F0xx_StdPeriph_Driver/src/stm32f0xx_exti.c ****   * @brief  Generates a Software interrupt on selected EXTI line.
 195:Libraries/STM32F0xx_StdPeriph_Driver/src/stm32f0xx_exti.c ****   * @param  EXTI_Line: specifies the EXTI line on which the software interrupt
 196:Libraries/STM32F0xx_StdPeriph_Driver/src/stm32f0xx_exti.c ****   *         will be generated.
 197:Libraries/STM32F0xx_StdPeriph_Driver/src/stm32f0xx_exti.c ****   *   This parameter can be any combination of EXTI_Linex where x can be (0..19)
 198:Libraries/STM32F0xx_StdPeriph_Driver/src/stm32f0xx_exti.c ****   * @retval None
 199:Libraries/STM32F0xx_StdPeriph_Driver/src/stm32f0xx_exti.c ****   */
 200:Libraries/STM32F0xx_StdPeriph_Driver/src/stm32f0xx_exti.c **** void EXTI_GenerateSWInterrupt(uint32_t EXTI_Line)
 201:Libraries/STM32F0xx_StdPeriph_Driver/src/stm32f0xx_exti.c **** {
 255              		.loc 1 201 1 is_stmt 1 view -0
 256              		.cfi_startproc
ARM GAS  /tmp/ccPO3lMn.s 			page 9


 257              		@ args = 0, pretend = 0, frame = 0
 258              		@ frame_needed = 0, uses_anonymous_args = 0
 259              		@ link register save eliminated.
 202:Libraries/STM32F0xx_StdPeriph_Driver/src/stm32f0xx_exti.c ****   /* Check the parameters */
 203:Libraries/STM32F0xx_StdPeriph_Driver/src/stm32f0xx_exti.c ****   assert_param(IS_EXTI_LINE(EXTI_Line));
 260              		.loc 1 203 3 view .LVU72
 204:Libraries/STM32F0xx_StdPeriph_Driver/src/stm32f0xx_exti.c **** 
 205:Libraries/STM32F0xx_StdPeriph_Driver/src/stm32f0xx_exti.c ****   EXTI->SWIER |= EXTI_Line;
 261              		.loc 1 205 3 view .LVU73
 262              		.loc 1 205 15 is_stmt 0 view .LVU74
 263 0000 024A     		ldr	r2, .L13
 264 0002 1369     		ldr	r3, [r2, #16]
 265 0004 0343     		orrs	r3, r0
 266 0006 1361     		str	r3, [r2, #16]
 206:Libraries/STM32F0xx_StdPeriph_Driver/src/stm32f0xx_exti.c **** }
 267              		.loc 1 206 1 view .LVU75
 268              		@ sp needed
 269 0008 7047     		bx	lr
 270              	.L14:
 271 000a C046     		.align	2
 272              	.L13:
 273 000c 00040140 		.word	1073808384
 274              		.cfi_endproc
 275              	.LFE35:
 277              		.section	.text.EXTI_GetFlagStatus,"ax",%progbits
 278              		.align	1
 279              		.global	EXTI_GetFlagStatus
 280              		.syntax unified
 281              		.code	16
 282              		.thumb_func
 283              		.fpu softvfp
 285              	EXTI_GetFlagStatus:
 286              	.LVL12:
 287              	.LFB36:
 207:Libraries/STM32F0xx_StdPeriph_Driver/src/stm32f0xx_exti.c **** 
 208:Libraries/STM32F0xx_StdPeriph_Driver/src/stm32f0xx_exti.c **** /**
 209:Libraries/STM32F0xx_StdPeriph_Driver/src/stm32f0xx_exti.c ****   * @}
 210:Libraries/STM32F0xx_StdPeriph_Driver/src/stm32f0xx_exti.c ****   */
 211:Libraries/STM32F0xx_StdPeriph_Driver/src/stm32f0xx_exti.c **** 
 212:Libraries/STM32F0xx_StdPeriph_Driver/src/stm32f0xx_exti.c **** /** @defgroup EXTI_Group2 Interrupts and flags management functions
 213:Libraries/STM32F0xx_StdPeriph_Driver/src/stm32f0xx_exti.c ****  *  @brief    Interrupts and flags management functions 
 214:Libraries/STM32F0xx_StdPeriph_Driver/src/stm32f0xx_exti.c ****  *
 215:Libraries/STM32F0xx_StdPeriph_Driver/src/stm32f0xx_exti.c **** @verbatim   
 216:Libraries/STM32F0xx_StdPeriph_Driver/src/stm32f0xx_exti.c ****   ==============================================================================
 217:Libraries/STM32F0xx_StdPeriph_Driver/src/stm32f0xx_exti.c ****              ##### Interrupts and flags management functions #####
 218:Libraries/STM32F0xx_StdPeriph_Driver/src/stm32f0xx_exti.c ****   ==============================================================================
 219:Libraries/STM32F0xx_StdPeriph_Driver/src/stm32f0xx_exti.c ****   
 220:Libraries/STM32F0xx_StdPeriph_Driver/src/stm32f0xx_exti.c **** @endverbatim
 221:Libraries/STM32F0xx_StdPeriph_Driver/src/stm32f0xx_exti.c ****   * @{
 222:Libraries/STM32F0xx_StdPeriph_Driver/src/stm32f0xx_exti.c ****   */
 223:Libraries/STM32F0xx_StdPeriph_Driver/src/stm32f0xx_exti.c **** 
 224:Libraries/STM32F0xx_StdPeriph_Driver/src/stm32f0xx_exti.c **** /**
 225:Libraries/STM32F0xx_StdPeriph_Driver/src/stm32f0xx_exti.c ****   * @brief  Checks whether the specified EXTI line flag is set or not.
 226:Libraries/STM32F0xx_StdPeriph_Driver/src/stm32f0xx_exti.c ****   * @param  EXTI_Line: specifies the EXTI line flag to check.
 227:Libraries/STM32F0xx_StdPeriph_Driver/src/stm32f0xx_exti.c ****   *   This parameter can be:
 228:Libraries/STM32F0xx_StdPeriph_Driver/src/stm32f0xx_exti.c ****   *   EXTI_Linex: External interrupt line x where x(0..19).
 229:Libraries/STM32F0xx_StdPeriph_Driver/src/stm32f0xx_exti.c ****   * @retval The new state of EXTI_Line (SET or RESET).
ARM GAS  /tmp/ccPO3lMn.s 			page 10


 230:Libraries/STM32F0xx_StdPeriph_Driver/src/stm32f0xx_exti.c ****   */
 231:Libraries/STM32F0xx_StdPeriph_Driver/src/stm32f0xx_exti.c **** FlagStatus EXTI_GetFlagStatus(uint32_t EXTI_Line)
 232:Libraries/STM32F0xx_StdPeriph_Driver/src/stm32f0xx_exti.c **** {
 288              		.loc 1 232 1 is_stmt 1 view -0
 289              		.cfi_startproc
 290              		@ args = 0, pretend = 0, frame = 0
 291              		@ frame_needed = 0, uses_anonymous_args = 0
 292              		@ link register save eliminated.
 233:Libraries/STM32F0xx_StdPeriph_Driver/src/stm32f0xx_exti.c ****    FlagStatus bitstatus = RESET;
 293              		.loc 1 233 4 view .LVU77
 234:Libraries/STM32F0xx_StdPeriph_Driver/src/stm32f0xx_exti.c ****   /* Check the parameters */
 235:Libraries/STM32F0xx_StdPeriph_Driver/src/stm32f0xx_exti.c ****   assert_param(IS_GET_EXTI_LINE(EXTI_Line));
 294              		.loc 1 235 3 view .LVU78
 236:Libraries/STM32F0xx_StdPeriph_Driver/src/stm32f0xx_exti.c **** 
 237:Libraries/STM32F0xx_StdPeriph_Driver/src/stm32f0xx_exti.c ****   if ((EXTI->PR & EXTI_Line) != (uint32_t)RESET)
 295              		.loc 1 237 3 view .LVU79
 296              		.loc 1 237 12 is_stmt 0 view .LVU80
 297 0000 034B     		ldr	r3, .L18
 298 0002 5B69     		ldr	r3, [r3, #20]
 299              		.loc 1 237 6 view .LVU81
 300 0004 1842     		tst	r0, r3
 301 0006 01D0     		beq	.L17
 238:Libraries/STM32F0xx_StdPeriph_Driver/src/stm32f0xx_exti.c ****   {
 239:Libraries/STM32F0xx_StdPeriph_Driver/src/stm32f0xx_exti.c ****     bitstatus = SET;
 302              		.loc 1 239 15 view .LVU82
 303 0008 0120     		movs	r0, #1
 304              	.LVL13:
 305              	.L16:
 240:Libraries/STM32F0xx_StdPeriph_Driver/src/stm32f0xx_exti.c ****   }
 241:Libraries/STM32F0xx_StdPeriph_Driver/src/stm32f0xx_exti.c ****   else
 242:Libraries/STM32F0xx_StdPeriph_Driver/src/stm32f0xx_exti.c ****   {
 243:Libraries/STM32F0xx_StdPeriph_Driver/src/stm32f0xx_exti.c ****     bitstatus = RESET;
 244:Libraries/STM32F0xx_StdPeriph_Driver/src/stm32f0xx_exti.c ****   }
 245:Libraries/STM32F0xx_StdPeriph_Driver/src/stm32f0xx_exti.c ****   return bitstatus;
 306              		.loc 1 245 3 is_stmt 1 view .LVU83
 246:Libraries/STM32F0xx_StdPeriph_Driver/src/stm32f0xx_exti.c **** }
 307              		.loc 1 246 1 is_stmt 0 view .LVU84
 308              		@ sp needed
 309 000a 7047     		bx	lr
 310              	.LVL14:
 311              	.L17:
 243:Libraries/STM32F0xx_StdPeriph_Driver/src/stm32f0xx_exti.c ****   }
 312              		.loc 1 243 15 view .LVU85
 313 000c 0020     		movs	r0, #0
 314              	.LVL15:
 243:Libraries/STM32F0xx_StdPeriph_Driver/src/stm32f0xx_exti.c ****   }
 315              		.loc 1 243 15 view .LVU86
 316 000e FCE7     		b	.L16
 317              	.L19:
 318              		.align	2
 319              	.L18:
 320 0010 00040140 		.word	1073808384
 321              		.cfi_endproc
 322              	.LFE36:
 324              		.section	.text.EXTI_ClearFlag,"ax",%progbits
 325              		.align	1
 326              		.global	EXTI_ClearFlag
ARM GAS  /tmp/ccPO3lMn.s 			page 11


 327              		.syntax unified
 328              		.code	16
 329              		.thumb_func
 330              		.fpu softvfp
 332              	EXTI_ClearFlag:
 333              	.LVL16:
 334              	.LFB37:
 247:Libraries/STM32F0xx_StdPeriph_Driver/src/stm32f0xx_exti.c **** 
 248:Libraries/STM32F0xx_StdPeriph_Driver/src/stm32f0xx_exti.c **** /**
 249:Libraries/STM32F0xx_StdPeriph_Driver/src/stm32f0xx_exti.c ****   * @brief  Clears the EXTI's line pending flags.
 250:Libraries/STM32F0xx_StdPeriph_Driver/src/stm32f0xx_exti.c ****   * @param  EXTI_Line: specifies the EXTI lines flags to clear.
 251:Libraries/STM32F0xx_StdPeriph_Driver/src/stm32f0xx_exti.c ****   *   This parameter can be any combination of EXTI_Linex where x can be (0..19)
 252:Libraries/STM32F0xx_StdPeriph_Driver/src/stm32f0xx_exti.c ****   * @retval None
 253:Libraries/STM32F0xx_StdPeriph_Driver/src/stm32f0xx_exti.c ****   */
 254:Libraries/STM32F0xx_StdPeriph_Driver/src/stm32f0xx_exti.c **** void EXTI_ClearFlag(uint32_t EXTI_Line)
 255:Libraries/STM32F0xx_StdPeriph_Driver/src/stm32f0xx_exti.c **** {
 335              		.loc 1 255 1 is_stmt 1 view -0
 336              		.cfi_startproc
 337              		@ args = 0, pretend = 0, frame = 0
 338              		@ frame_needed = 0, uses_anonymous_args = 0
 339              		@ link register save eliminated.
 256:Libraries/STM32F0xx_StdPeriph_Driver/src/stm32f0xx_exti.c ****   /* Check the parameters */
 257:Libraries/STM32F0xx_StdPeriph_Driver/src/stm32f0xx_exti.c ****   assert_param(IS_EXTI_LINE(EXTI_Line));
 340              		.loc 1 257 3 view .LVU88
 258:Libraries/STM32F0xx_StdPeriph_Driver/src/stm32f0xx_exti.c **** 
 259:Libraries/STM32F0xx_StdPeriph_Driver/src/stm32f0xx_exti.c ****   EXTI->PR = EXTI_Line;
 341              		.loc 1 259 3 view .LVU89
 342              		.loc 1 259 12 is_stmt 0 view .LVU90
 343 0000 014B     		ldr	r3, .L21
 344 0002 5861     		str	r0, [r3, #20]
 260:Libraries/STM32F0xx_StdPeriph_Driver/src/stm32f0xx_exti.c **** }
 345              		.loc 1 260 1 view .LVU91
 346              		@ sp needed
 347 0004 7047     		bx	lr
 348              	.L22:
 349 0006 C046     		.align	2
 350              	.L21:
 351 0008 00040140 		.word	1073808384
 352              		.cfi_endproc
 353              	.LFE37:
 355              		.section	.text.EXTI_GetITStatus,"ax",%progbits
 356              		.align	1
 357              		.global	EXTI_GetITStatus
 358              		.syntax unified
 359              		.code	16
 360              		.thumb_func
 361              		.fpu softvfp
 363              	EXTI_GetITStatus:
 364              	.LVL17:
 365              	.LFB38:
 261:Libraries/STM32F0xx_StdPeriph_Driver/src/stm32f0xx_exti.c **** 
 262:Libraries/STM32F0xx_StdPeriph_Driver/src/stm32f0xx_exti.c **** /**
 263:Libraries/STM32F0xx_StdPeriph_Driver/src/stm32f0xx_exti.c ****   * @brief  Checks whether the specified EXTI line is asserted or not.
 264:Libraries/STM32F0xx_StdPeriph_Driver/src/stm32f0xx_exti.c ****   * @param  EXTI_Line: specifies the EXTI line to check.
 265:Libraries/STM32F0xx_StdPeriph_Driver/src/stm32f0xx_exti.c ****   *   This parameter can be:
 266:Libraries/STM32F0xx_StdPeriph_Driver/src/stm32f0xx_exti.c ****   *   EXTI_Linex: External interrupt line x where x(0..19).
 267:Libraries/STM32F0xx_StdPeriph_Driver/src/stm32f0xx_exti.c ****   * @retval The new state of EXTI_Line (SET or RESET).
ARM GAS  /tmp/ccPO3lMn.s 			page 12


 268:Libraries/STM32F0xx_StdPeriph_Driver/src/stm32f0xx_exti.c ****   */
 269:Libraries/STM32F0xx_StdPeriph_Driver/src/stm32f0xx_exti.c **** ITStatus EXTI_GetITStatus(uint32_t EXTI_Line)
 270:Libraries/STM32F0xx_StdPeriph_Driver/src/stm32f0xx_exti.c **** {
 366              		.loc 1 270 1 is_stmt 1 view -0
 367              		.cfi_startproc
 368              		@ args = 0, pretend = 0, frame = 0
 369              		@ frame_needed = 0, uses_anonymous_args = 0
 370              		@ link register save eliminated.
 271:Libraries/STM32F0xx_StdPeriph_Driver/src/stm32f0xx_exti.c ****   ITStatus bitstatus = RESET;
 371              		.loc 1 271 3 view .LVU93
 272:Libraries/STM32F0xx_StdPeriph_Driver/src/stm32f0xx_exti.c ****   uint32_t enablestatus = 0;
 372              		.loc 1 272 3 view .LVU94
 273:Libraries/STM32F0xx_StdPeriph_Driver/src/stm32f0xx_exti.c ****   /* Check the parameters */
 274:Libraries/STM32F0xx_StdPeriph_Driver/src/stm32f0xx_exti.c ****   assert_param(IS_GET_EXTI_LINE(EXTI_Line));
 373              		.loc 1 274 3 view .LVU95
 275:Libraries/STM32F0xx_StdPeriph_Driver/src/stm32f0xx_exti.c **** 
 276:Libraries/STM32F0xx_StdPeriph_Driver/src/stm32f0xx_exti.c ****   enablestatus =  EXTI->IMR & EXTI_Line;
 374              		.loc 1 276 3 view .LVU96
 375              		.loc 1 276 23 is_stmt 0 view .LVU97
 376 0000 064A     		ldr	r2, .L27
 377 0002 1368     		ldr	r3, [r2]
 378              		.loc 1 276 16 view .LVU98
 379 0004 0340     		ands	r3, r0
 380              	.LVL18:
 277:Libraries/STM32F0xx_StdPeriph_Driver/src/stm32f0xx_exti.c ****   if (((EXTI->PR & EXTI_Line) != (uint32_t)RESET) && (enablestatus != (uint32_t)RESET))
 381              		.loc 1 277 3 is_stmt 1 view .LVU99
 382              		.loc 1 277 13 is_stmt 0 view .LVU100
 383 0006 5269     		ldr	r2, [r2, #20]
 384              		.loc 1 277 6 view .LVU101
 385 0008 1042     		tst	r0, r2
 386 000a 03D0     		beq	.L25
 387              		.loc 1 277 51 discriminator 1 view .LVU102
 388 000c 002B     		cmp	r3, #0
 389 000e 03D1     		bne	.L26
 278:Libraries/STM32F0xx_StdPeriph_Driver/src/stm32f0xx_exti.c ****   {
 279:Libraries/STM32F0xx_StdPeriph_Driver/src/stm32f0xx_exti.c ****     bitstatus = SET;
 280:Libraries/STM32F0xx_StdPeriph_Driver/src/stm32f0xx_exti.c ****   }
 281:Libraries/STM32F0xx_StdPeriph_Driver/src/stm32f0xx_exti.c ****   else
 282:Libraries/STM32F0xx_StdPeriph_Driver/src/stm32f0xx_exti.c ****   {
 283:Libraries/STM32F0xx_StdPeriph_Driver/src/stm32f0xx_exti.c ****     bitstatus = RESET;
 390              		.loc 1 283 15 view .LVU103
 391 0010 0020     		movs	r0, #0
 392              	.LVL19:
 393              		.loc 1 283 15 view .LVU104
 394 0012 00E0     		b	.L24
 395              	.LVL20:
 396              	.L25:
 397              		.loc 1 283 15 view .LVU105
 398 0014 0020     		movs	r0, #0
 399              	.LVL21:
 400              	.L24:
 284:Libraries/STM32F0xx_StdPeriph_Driver/src/stm32f0xx_exti.c ****   }
 285:Libraries/STM32F0xx_StdPeriph_Driver/src/stm32f0xx_exti.c ****   return bitstatus;
 401              		.loc 1 285 3 is_stmt 1 view .LVU106
 286:Libraries/STM32F0xx_StdPeriph_Driver/src/stm32f0xx_exti.c ****   
 287:Libraries/STM32F0xx_StdPeriph_Driver/src/stm32f0xx_exti.c **** }
 402              		.loc 1 287 1 is_stmt 0 view .LVU107
ARM GAS  /tmp/ccPO3lMn.s 			page 13


 403              		@ sp needed
 404 0016 7047     		bx	lr
 405              	.LVL22:
 406              	.L26:
 279:Libraries/STM32F0xx_StdPeriph_Driver/src/stm32f0xx_exti.c ****   }
 407              		.loc 1 279 15 view .LVU108
 408 0018 0120     		movs	r0, #1
 409              	.LVL23:
 279:Libraries/STM32F0xx_StdPeriph_Driver/src/stm32f0xx_exti.c ****   }
 410              		.loc 1 279 15 view .LVU109
 411 001a FCE7     		b	.L24
 412              	.L28:
 413              		.align	2
 414              	.L27:
 415 001c 00040140 		.word	1073808384
 416              		.cfi_endproc
 417              	.LFE38:
 419              		.section	.text.EXTI_ClearITPendingBit,"ax",%progbits
 420              		.align	1
 421              		.global	EXTI_ClearITPendingBit
 422              		.syntax unified
 423              		.code	16
 424              		.thumb_func
 425              		.fpu softvfp
 427              	EXTI_ClearITPendingBit:
 428              	.LVL24:
 429              	.LFB39:
 288:Libraries/STM32F0xx_StdPeriph_Driver/src/stm32f0xx_exti.c **** 
 289:Libraries/STM32F0xx_StdPeriph_Driver/src/stm32f0xx_exti.c **** /**
 290:Libraries/STM32F0xx_StdPeriph_Driver/src/stm32f0xx_exti.c ****   * @brief  Clears the EXTI's line pending bits.
 291:Libraries/STM32F0xx_StdPeriph_Driver/src/stm32f0xx_exti.c ****   * @param  EXTI_Line: specifies the EXTI lines to clear.
 292:Libraries/STM32F0xx_StdPeriph_Driver/src/stm32f0xx_exti.c ****   *   This parameter can be any combination of EXTI_Linex where x can be (0..19).
 293:Libraries/STM32F0xx_StdPeriph_Driver/src/stm32f0xx_exti.c ****   * @retval None
 294:Libraries/STM32F0xx_StdPeriph_Driver/src/stm32f0xx_exti.c ****   */
 295:Libraries/STM32F0xx_StdPeriph_Driver/src/stm32f0xx_exti.c **** void EXTI_ClearITPendingBit(uint32_t EXTI_Line)
 296:Libraries/STM32F0xx_StdPeriph_Driver/src/stm32f0xx_exti.c **** {
 430              		.loc 1 296 1 is_stmt 1 view -0
 431              		.cfi_startproc
 432              		@ args = 0, pretend = 0, frame = 0
 433              		@ frame_needed = 0, uses_anonymous_args = 0
 434              		@ link register save eliminated.
 297:Libraries/STM32F0xx_StdPeriph_Driver/src/stm32f0xx_exti.c ****   /* Check the parameters */
 298:Libraries/STM32F0xx_StdPeriph_Driver/src/stm32f0xx_exti.c ****   assert_param(IS_EXTI_LINE(EXTI_Line));
 435              		.loc 1 298 3 view .LVU111
 299:Libraries/STM32F0xx_StdPeriph_Driver/src/stm32f0xx_exti.c **** 
 300:Libraries/STM32F0xx_StdPeriph_Driver/src/stm32f0xx_exti.c ****   EXTI->PR = EXTI_Line;
 436              		.loc 1 300 3 view .LVU112
 437              		.loc 1 300 12 is_stmt 0 view .LVU113
 438 0000 014B     		ldr	r3, .L30
 439 0002 5861     		str	r0, [r3, #20]
 301:Libraries/STM32F0xx_StdPeriph_Driver/src/stm32f0xx_exti.c **** }
 440              		.loc 1 301 1 view .LVU114
 441              		@ sp needed
 442 0004 7047     		bx	lr
 443              	.L31:
 444 0006 C046     		.align	2
 445              	.L30:
ARM GAS  /tmp/ccPO3lMn.s 			page 14


 446 0008 00040140 		.word	1073808384
 447              		.cfi_endproc
 448              	.LFE39:
 450              		.text
 451              	.Letext0:
 452              		.file 2 "/usr/arm-none-eabi/include/machine/_default_types.h"
 453              		.file 3 "/usr/arm-none-eabi/include/sys/_stdint.h"
 454              		.file 4 "./Libraries/CMSIS/ST/STM32F0xx/Include/stm32f0xx.h"
 455              		.file 5 "./Libraries/STM32F0xx_StdPeriph_Driver/inc/stm32f0xx_exti.h"
 456              		.file 6 "./Libraries/CMSIS/ST/STM32F0xx/Include/system_stm32f0xx.h"
ARM GAS  /tmp/ccPO3lMn.s 			page 15

