ARM GAS  /tmp/cckOfEtk.s 			page 1


   1              		.cpu cortex-m0
   2              		.eabi_attribute 20, 1
   3              		.eabi_attribute 21, 1
   4              		.eabi_attribute 23, 3
   5              		.eabi_attribute 24, 1
   6              		.eabi_attribute 25, 1
   7              		.eabi_attribute 26, 1
   8              		.eabi_attribute 30, 1
   9              		.eabi_attribute 34, 0
  10              		.eabi_attribute 18, 4
  11              		.file	"stm32f0xx_crc.c"
  12              		.text
  13              	.Ltext0:
  14              		.cfi_sections	.debug_frame
  15              		.section	.text.CRC_DeInit,"ax",%progbits
  16              		.align	1
  17              		.global	CRC_DeInit
  18              		.arch armv6s-m
  19              		.syntax unified
  20              		.code	16
  21              		.thumb_func
  22              		.fpu softvfp
  24              	CRC_DeInit:
  25              	.LFB32:
  26              		.file 1 "Libraries/STM32F0xx_StdPeriph_Driver/src/stm32f0xx_crc.c"
   1:Libraries/STM32F0xx_StdPeriph_Driver/src/stm32f0xx_crc.c **** /**
   2:Libraries/STM32F0xx_StdPeriph_Driver/src/stm32f0xx_crc.c ****   ******************************************************************************
   3:Libraries/STM32F0xx_StdPeriph_Driver/src/stm32f0xx_crc.c ****   * @file    stm32f0xx_crc.c
   4:Libraries/STM32F0xx_StdPeriph_Driver/src/stm32f0xx_crc.c ****   * @author  MCD Application Team
   5:Libraries/STM32F0xx_StdPeriph_Driver/src/stm32f0xx_crc.c ****   * @version V1.0.0
   6:Libraries/STM32F0xx_StdPeriph_Driver/src/stm32f0xx_crc.c ****   * @date    23-March-2012
   7:Libraries/STM32F0xx_StdPeriph_Driver/src/stm32f0xx_crc.c ****   * @brief   This file provides firmware functions to manage the following 
   8:Libraries/STM32F0xx_StdPeriph_Driver/src/stm32f0xx_crc.c ****   *          functionalities of CRC computation unit peripheral:
   9:Libraries/STM32F0xx_StdPeriph_Driver/src/stm32f0xx_crc.c ****   *            + Configuration of the CRC computation unit
  10:Libraries/STM32F0xx_StdPeriph_Driver/src/stm32f0xx_crc.c ****   *            + CRC computation of one/many 32-bit data
  11:Libraries/STM32F0xx_StdPeriph_Driver/src/stm32f0xx_crc.c ****   *            + CRC Independent register (IDR) access
  12:Libraries/STM32F0xx_StdPeriph_Driver/src/stm32f0xx_crc.c ****   *
  13:Libraries/STM32F0xx_StdPeriph_Driver/src/stm32f0xx_crc.c ****   *  @verbatim
  14:Libraries/STM32F0xx_StdPeriph_Driver/src/stm32f0xx_crc.c ****  ===============================================================================
  15:Libraries/STM32F0xx_StdPeriph_Driver/src/stm32f0xx_crc.c ****                      ##### How to use this driver #####
  16:Libraries/STM32F0xx_StdPeriph_Driver/src/stm32f0xx_crc.c ****  ===============================================================================
  17:Libraries/STM32F0xx_StdPeriph_Driver/src/stm32f0xx_crc.c ****     [..]
  18:Libraries/STM32F0xx_StdPeriph_Driver/src/stm32f0xx_crc.c ****     
  19:Libraries/STM32F0xx_StdPeriph_Driver/src/stm32f0xx_crc.c ****          (+) Enable CRC AHB clock using RCC_AHBPeriphClockCmd(RCC_AHBPeriph_CRC, ENABLE)
  20:Libraries/STM32F0xx_StdPeriph_Driver/src/stm32f0xx_crc.c ****              function
  21:Libraries/STM32F0xx_StdPeriph_Driver/src/stm32f0xx_crc.c ****          (+) If required, select the reverse operation on input data 
  22:Libraries/STM32F0xx_StdPeriph_Driver/src/stm32f0xx_crc.c ****              using CRC_ReverseInputDataSelect()  
  23:Libraries/STM32F0xx_StdPeriph_Driver/src/stm32f0xx_crc.c ****          (+) If required, enable the reverse operation on output data
  24:Libraries/STM32F0xx_StdPeriph_Driver/src/stm32f0xx_crc.c ****              using CRC_ReverseOutputDataCmd(Enable)
  25:Libraries/STM32F0xx_StdPeriph_Driver/src/stm32f0xx_crc.c ****          (+) use CRC_CalcCRC() function to compute the CRC of a 32-bit data
  26:Libraries/STM32F0xx_StdPeriph_Driver/src/stm32f0xx_crc.c ****              or use CRC_CalcBlockCRC() function to compute the CRC if a 32-bit 
  27:Libraries/STM32F0xx_StdPeriph_Driver/src/stm32f0xx_crc.c ****              data buffer
  28:Libraries/STM32F0xx_StdPeriph_Driver/src/stm32f0xx_crc.c ****             (@) To compute the CRC of a new data use CRC_ResetDR() to reset
  29:Libraries/STM32F0xx_StdPeriph_Driver/src/stm32f0xx_crc.c ****                  the CRC computation unit before starting the computation
  30:Libraries/STM32F0xx_StdPeriph_Driver/src/stm32f0xx_crc.c ****                  otherwise you can get wrong CRC values.
  31:Libraries/STM32F0xx_StdPeriph_Driver/src/stm32f0xx_crc.c ****       
  32:Libraries/STM32F0xx_StdPeriph_Driver/src/stm32f0xx_crc.c ****      @endverbatim
ARM GAS  /tmp/cckOfEtk.s 			page 2


  33:Libraries/STM32F0xx_StdPeriph_Driver/src/stm32f0xx_crc.c ****   *  
  34:Libraries/STM32F0xx_StdPeriph_Driver/src/stm32f0xx_crc.c ****   ******************************************************************************
  35:Libraries/STM32F0xx_StdPeriph_Driver/src/stm32f0xx_crc.c ****   * @attention
  36:Libraries/STM32F0xx_StdPeriph_Driver/src/stm32f0xx_crc.c ****   *
  37:Libraries/STM32F0xx_StdPeriph_Driver/src/stm32f0xx_crc.c ****   * <h2><center>&copy; COPYRIGHT 2012 STMicroelectronics</center></h2>
  38:Libraries/STM32F0xx_StdPeriph_Driver/src/stm32f0xx_crc.c ****   *
  39:Libraries/STM32F0xx_StdPeriph_Driver/src/stm32f0xx_crc.c ****   * Licensed under MCD-ST Liberty SW License Agreement V2, (the "License");
  40:Libraries/STM32F0xx_StdPeriph_Driver/src/stm32f0xx_crc.c ****   * You may not use this file except in compliance with the License.
  41:Libraries/STM32F0xx_StdPeriph_Driver/src/stm32f0xx_crc.c ****   * You may obtain a copy of the License at:
  42:Libraries/STM32F0xx_StdPeriph_Driver/src/stm32f0xx_crc.c ****   *
  43:Libraries/STM32F0xx_StdPeriph_Driver/src/stm32f0xx_crc.c ****   *        http://www.st.com/software_license_agreement_liberty_v2
  44:Libraries/STM32F0xx_StdPeriph_Driver/src/stm32f0xx_crc.c ****   *
  45:Libraries/STM32F0xx_StdPeriph_Driver/src/stm32f0xx_crc.c ****   * Unless required by applicable law or agreed to in writing, software 
  46:Libraries/STM32F0xx_StdPeriph_Driver/src/stm32f0xx_crc.c ****   * distributed under the License is distributed on an "AS IS" BASIS, 
  47:Libraries/STM32F0xx_StdPeriph_Driver/src/stm32f0xx_crc.c ****   * WITHOUT WARRANTIES OR CONDITIONS OF ANY KIND, either express or implied.
  48:Libraries/STM32F0xx_StdPeriph_Driver/src/stm32f0xx_crc.c ****   * See the License for the specific language governing permissions and
  49:Libraries/STM32F0xx_StdPeriph_Driver/src/stm32f0xx_crc.c ****   * limitations under the License.
  50:Libraries/STM32F0xx_StdPeriph_Driver/src/stm32f0xx_crc.c ****   *
  51:Libraries/STM32F0xx_StdPeriph_Driver/src/stm32f0xx_crc.c ****   ******************************************************************************
  52:Libraries/STM32F0xx_StdPeriph_Driver/src/stm32f0xx_crc.c ****   */
  53:Libraries/STM32F0xx_StdPeriph_Driver/src/stm32f0xx_crc.c **** 
  54:Libraries/STM32F0xx_StdPeriph_Driver/src/stm32f0xx_crc.c **** /* Includes ------------------------------------------------------------------*/
  55:Libraries/STM32F0xx_StdPeriph_Driver/src/stm32f0xx_crc.c **** #include "stm32f0xx_crc.h"
  56:Libraries/STM32F0xx_StdPeriph_Driver/src/stm32f0xx_crc.c **** 
  57:Libraries/STM32F0xx_StdPeriph_Driver/src/stm32f0xx_crc.c **** /** @addtogroup STM32F0xx_StdPeriph_Driver
  58:Libraries/STM32F0xx_StdPeriph_Driver/src/stm32f0xx_crc.c ****   * @{
  59:Libraries/STM32F0xx_StdPeriph_Driver/src/stm32f0xx_crc.c ****   */
  60:Libraries/STM32F0xx_StdPeriph_Driver/src/stm32f0xx_crc.c **** 
  61:Libraries/STM32F0xx_StdPeriph_Driver/src/stm32f0xx_crc.c **** /** @defgroup CRC 
  62:Libraries/STM32F0xx_StdPeriph_Driver/src/stm32f0xx_crc.c ****   * @brief CRC driver modules
  63:Libraries/STM32F0xx_StdPeriph_Driver/src/stm32f0xx_crc.c ****   * @{
  64:Libraries/STM32F0xx_StdPeriph_Driver/src/stm32f0xx_crc.c ****   */
  65:Libraries/STM32F0xx_StdPeriph_Driver/src/stm32f0xx_crc.c **** 
  66:Libraries/STM32F0xx_StdPeriph_Driver/src/stm32f0xx_crc.c **** /* Private typedef -----------------------------------------------------------*/
  67:Libraries/STM32F0xx_StdPeriph_Driver/src/stm32f0xx_crc.c **** /* Private define ------------------------------------------------------------*/
  68:Libraries/STM32F0xx_StdPeriph_Driver/src/stm32f0xx_crc.c **** /* Private macro -------------------------------------------------------------*/
  69:Libraries/STM32F0xx_StdPeriph_Driver/src/stm32f0xx_crc.c **** /* Private variables ---------------------------------------------------------*/
  70:Libraries/STM32F0xx_StdPeriph_Driver/src/stm32f0xx_crc.c **** /* Private function prototypes -----------------------------------------------*/
  71:Libraries/STM32F0xx_StdPeriph_Driver/src/stm32f0xx_crc.c **** /* Private functions ---------------------------------------------------------*/
  72:Libraries/STM32F0xx_StdPeriph_Driver/src/stm32f0xx_crc.c **** 
  73:Libraries/STM32F0xx_StdPeriph_Driver/src/stm32f0xx_crc.c **** /** @defgroup CRC_Private_Functions
  74:Libraries/STM32F0xx_StdPeriph_Driver/src/stm32f0xx_crc.c ****   * @{
  75:Libraries/STM32F0xx_StdPeriph_Driver/src/stm32f0xx_crc.c ****   */
  76:Libraries/STM32F0xx_StdPeriph_Driver/src/stm32f0xx_crc.c **** 
  77:Libraries/STM32F0xx_StdPeriph_Driver/src/stm32f0xx_crc.c **** /** @defgroup CRC_Group1 Configuration of the CRC computation unit functions
  78:Libraries/STM32F0xx_StdPeriph_Driver/src/stm32f0xx_crc.c ****  *  @brief   Configuration of the CRC computation unit functions 
  79:Libraries/STM32F0xx_StdPeriph_Driver/src/stm32f0xx_crc.c ****  *
  80:Libraries/STM32F0xx_StdPeriph_Driver/src/stm32f0xx_crc.c **** @verbatim
  81:Libraries/STM32F0xx_StdPeriph_Driver/src/stm32f0xx_crc.c ****  ===============================================================================
  82:Libraries/STM32F0xx_StdPeriph_Driver/src/stm32f0xx_crc.c ****                      ##### CRC configuration functions #####
  83:Libraries/STM32F0xx_StdPeriph_Driver/src/stm32f0xx_crc.c ****  ===============================================================================
  84:Libraries/STM32F0xx_StdPeriph_Driver/src/stm32f0xx_crc.c **** 
  85:Libraries/STM32F0xx_StdPeriph_Driver/src/stm32f0xx_crc.c **** @endverbatim
  86:Libraries/STM32F0xx_StdPeriph_Driver/src/stm32f0xx_crc.c ****   * @{
  87:Libraries/STM32F0xx_StdPeriph_Driver/src/stm32f0xx_crc.c ****   */
  88:Libraries/STM32F0xx_StdPeriph_Driver/src/stm32f0xx_crc.c **** 
  89:Libraries/STM32F0xx_StdPeriph_Driver/src/stm32f0xx_crc.c **** /**
ARM GAS  /tmp/cckOfEtk.s 			page 3


  90:Libraries/STM32F0xx_StdPeriph_Driver/src/stm32f0xx_crc.c ****   * @brief  Deinitializes CRC peripheral registers to their default reset values.
  91:Libraries/STM32F0xx_StdPeriph_Driver/src/stm32f0xx_crc.c ****   * @param  None
  92:Libraries/STM32F0xx_StdPeriph_Driver/src/stm32f0xx_crc.c ****   * @retval None
  93:Libraries/STM32F0xx_StdPeriph_Driver/src/stm32f0xx_crc.c ****   */
  94:Libraries/STM32F0xx_StdPeriph_Driver/src/stm32f0xx_crc.c **** void CRC_DeInit(void)
  95:Libraries/STM32F0xx_StdPeriph_Driver/src/stm32f0xx_crc.c **** {
  27              		.loc 1 95 1 view -0
  28              		.cfi_startproc
  29              		@ args = 0, pretend = 0, frame = 0
  30              		@ frame_needed = 0, uses_anonymous_args = 0
  31              		@ link register save eliminated.
  96:Libraries/STM32F0xx_StdPeriph_Driver/src/stm32f0xx_crc.c ****   /* Set DR register to reset value */
  97:Libraries/STM32F0xx_StdPeriph_Driver/src/stm32f0xx_crc.c ****   CRC->DR = 0xFFFFFFFF;
  32              		.loc 1 97 3 view .LVU1
  33              		.loc 1 97 11 is_stmt 0 view .LVU2
  34 0000 044B     		ldr	r3, .L2
  35 0002 0122     		movs	r2, #1
  36 0004 5242     		rsbs	r2, r2, #0
  37 0006 1A60     		str	r2, [r3]
  98:Libraries/STM32F0xx_StdPeriph_Driver/src/stm32f0xx_crc.c ****   /* Reset IDR register */
  99:Libraries/STM32F0xx_StdPeriph_Driver/src/stm32f0xx_crc.c ****   CRC->IDR = 0x00;
  38              		.loc 1 99 3 is_stmt 1 view .LVU3
  39              		.loc 1 99 12 is_stmt 0 view .LVU4
  40 0008 0021     		movs	r1, #0
  41 000a 1971     		strb	r1, [r3, #4]
 100:Libraries/STM32F0xx_StdPeriph_Driver/src/stm32f0xx_crc.c ****   /* Set INIT register to reset value */
 101:Libraries/STM32F0xx_StdPeriph_Driver/src/stm32f0xx_crc.c ****   CRC->INIT = 0xFFFFFFFF;
  42              		.loc 1 101 3 is_stmt 1 view .LVU5
  43              		.loc 1 101 13 is_stmt 0 view .LVU6
  44 000c 1A61     		str	r2, [r3, #16]
 102:Libraries/STM32F0xx_StdPeriph_Driver/src/stm32f0xx_crc.c ****   /* Reset the CRC calculation unit */
 103:Libraries/STM32F0xx_StdPeriph_Driver/src/stm32f0xx_crc.c ****   CRC->CR = CRC_CR_RESET;
  45              		.loc 1 103 3 is_stmt 1 view .LVU7
  46              		.loc 1 103 11 is_stmt 0 view .LVU8
  47 000e 0232     		adds	r2, r2, #2
  48 0010 9A60     		str	r2, [r3, #8]
 104:Libraries/STM32F0xx_StdPeriph_Driver/src/stm32f0xx_crc.c **** }
  49              		.loc 1 104 1 view .LVU9
  50              		@ sp needed
  51 0012 7047     		bx	lr
  52              	.L3:
  53              		.align	2
  54              	.L2:
  55 0014 00300240 		.word	1073885184
  56              		.cfi_endproc
  57              	.LFE32:
  59              		.section	.text.CRC_ResetDR,"ax",%progbits
  60              		.align	1
  61              		.global	CRC_ResetDR
  62              		.syntax unified
  63              		.code	16
  64              		.thumb_func
  65              		.fpu softvfp
  67              	CRC_ResetDR:
  68              	.LFB33:
 105:Libraries/STM32F0xx_StdPeriph_Driver/src/stm32f0xx_crc.c **** 
 106:Libraries/STM32F0xx_StdPeriph_Driver/src/stm32f0xx_crc.c **** /**
ARM GAS  /tmp/cckOfEtk.s 			page 4


 107:Libraries/STM32F0xx_StdPeriph_Driver/src/stm32f0xx_crc.c ****   * @brief  Resets the CRC calculation unit and sets INIT register content in DR register.
 108:Libraries/STM32F0xx_StdPeriph_Driver/src/stm32f0xx_crc.c ****   * @param  None
 109:Libraries/STM32F0xx_StdPeriph_Driver/src/stm32f0xx_crc.c ****   * @retval None
 110:Libraries/STM32F0xx_StdPeriph_Driver/src/stm32f0xx_crc.c ****   */
 111:Libraries/STM32F0xx_StdPeriph_Driver/src/stm32f0xx_crc.c **** void CRC_ResetDR(void)
 112:Libraries/STM32F0xx_StdPeriph_Driver/src/stm32f0xx_crc.c **** {
  69              		.loc 1 112 1 is_stmt 1 view -0
  70              		.cfi_startproc
  71              		@ args = 0, pretend = 0, frame = 0
  72              		@ frame_needed = 0, uses_anonymous_args = 0
  73              		@ link register save eliminated.
 113:Libraries/STM32F0xx_StdPeriph_Driver/src/stm32f0xx_crc.c ****   /* Reset CRC generator */
 114:Libraries/STM32F0xx_StdPeriph_Driver/src/stm32f0xx_crc.c ****   CRC->CR = CRC_CR_RESET;
  74              		.loc 1 114 3 view .LVU11
  75              		.loc 1 114 11 is_stmt 0 view .LVU12
  76 0000 014B     		ldr	r3, .L5
  77 0002 0122     		movs	r2, #1
  78 0004 9A60     		str	r2, [r3, #8]
 115:Libraries/STM32F0xx_StdPeriph_Driver/src/stm32f0xx_crc.c **** }
  79              		.loc 1 115 1 view .LVU13
  80              		@ sp needed
  81 0006 7047     		bx	lr
  82              	.L6:
  83              		.align	2
  84              	.L5:
  85 0008 00300240 		.word	1073885184
  86              		.cfi_endproc
  87              	.LFE33:
  89              		.section	.text.CRC_ReverseInputDataSelect,"ax",%progbits
  90              		.align	1
  91              		.global	CRC_ReverseInputDataSelect
  92              		.syntax unified
  93              		.code	16
  94              		.thumb_func
  95              		.fpu softvfp
  97              	CRC_ReverseInputDataSelect:
  98              	.LVL0:
  99              	.LFB34:
 116:Libraries/STM32F0xx_StdPeriph_Driver/src/stm32f0xx_crc.c **** 
 117:Libraries/STM32F0xx_StdPeriph_Driver/src/stm32f0xx_crc.c **** /**
 118:Libraries/STM32F0xx_StdPeriph_Driver/src/stm32f0xx_crc.c ****   * @brief  Selects the reverse operation to be performed on input data.
 119:Libraries/STM32F0xx_StdPeriph_Driver/src/stm32f0xx_crc.c ****   * @param  CRC_ReverseInputData: Specifies the reverse operation on input data.
 120:Libraries/STM32F0xx_StdPeriph_Driver/src/stm32f0xx_crc.c ****   *         This parameter can be:
 121:Libraries/STM32F0xx_StdPeriph_Driver/src/stm32f0xx_crc.c ****   *      @arg CRC_ReverseInputData_No: No reverse operation is performed
 122:Libraries/STM32F0xx_StdPeriph_Driver/src/stm32f0xx_crc.c ****   *      @arg CRC_ReverseInputData_8bits: reverse operation performed on 8 bits
 123:Libraries/STM32F0xx_StdPeriph_Driver/src/stm32f0xx_crc.c ****   *      @arg CRC_ReverseInputData_16bits: reverse operation performed on 16 bits
 124:Libraries/STM32F0xx_StdPeriph_Driver/src/stm32f0xx_crc.c ****   *      @arg CRC_ReverseInputData_32bits: reverse operation performed on 32 bits
 125:Libraries/STM32F0xx_StdPeriph_Driver/src/stm32f0xx_crc.c ****   * @retval None
 126:Libraries/STM32F0xx_StdPeriph_Driver/src/stm32f0xx_crc.c ****   */
 127:Libraries/STM32F0xx_StdPeriph_Driver/src/stm32f0xx_crc.c **** void CRC_ReverseInputDataSelect(uint32_t CRC_ReverseInputData)
 128:Libraries/STM32F0xx_StdPeriph_Driver/src/stm32f0xx_crc.c **** {
 100              		.loc 1 128 1 is_stmt 1 view -0
 101              		.cfi_startproc
 102              		@ args = 0, pretend = 0, frame = 0
 103              		@ frame_needed = 0, uses_anonymous_args = 0
 104              		@ link register save eliminated.
 129:Libraries/STM32F0xx_StdPeriph_Driver/src/stm32f0xx_crc.c ****   uint32_t tmpcr = 0;
ARM GAS  /tmp/cckOfEtk.s 			page 5


 105              		.loc 1 129 3 view .LVU15
 130:Libraries/STM32F0xx_StdPeriph_Driver/src/stm32f0xx_crc.c **** 
 131:Libraries/STM32F0xx_StdPeriph_Driver/src/stm32f0xx_crc.c ****   /* Check the parameter */
 132:Libraries/STM32F0xx_StdPeriph_Driver/src/stm32f0xx_crc.c ****   assert_param(IS_CRC_REVERSE_INPUT_DATA(CRC_ReverseInputData));
 106              		.loc 1 132 3 view .LVU16
 133:Libraries/STM32F0xx_StdPeriph_Driver/src/stm32f0xx_crc.c **** 
 134:Libraries/STM32F0xx_StdPeriph_Driver/src/stm32f0xx_crc.c ****   /* Get CR register value */
 135:Libraries/STM32F0xx_StdPeriph_Driver/src/stm32f0xx_crc.c ****   tmpcr = CRC->CR;
 107              		.loc 1 135 3 view .LVU17
 108              		.loc 1 135 9 is_stmt 0 view .LVU18
 109 0000 034A     		ldr	r2, .L8
 110 0002 9368     		ldr	r3, [r2, #8]
 111              	.LVL1:
 136:Libraries/STM32F0xx_StdPeriph_Driver/src/stm32f0xx_crc.c **** 
 137:Libraries/STM32F0xx_StdPeriph_Driver/src/stm32f0xx_crc.c ****   /* Reset REV_IN bits */
 138:Libraries/STM32F0xx_StdPeriph_Driver/src/stm32f0xx_crc.c ****   tmpcr &= (uint32_t)~((uint32_t)CRC_CR_REV_IN);
 112              		.loc 1 138 3 is_stmt 1 view .LVU19
 113              		.loc 1 138 9 is_stmt 0 view .LVU20
 114 0004 6021     		movs	r1, #96
 115 0006 8B43     		bics	r3, r1
 116              	.LVL2:
 139:Libraries/STM32F0xx_StdPeriph_Driver/src/stm32f0xx_crc.c ****   /* Set the reverse operation */
 140:Libraries/STM32F0xx_StdPeriph_Driver/src/stm32f0xx_crc.c ****   tmpcr |= (uint32_t)CRC_ReverseInputData;
 117              		.loc 1 140 3 is_stmt 1 view .LVU21
 118              		.loc 1 140 9 is_stmt 0 view .LVU22
 119 0008 0343     		orrs	r3, r0
 120              	.LVL3:
 141:Libraries/STM32F0xx_StdPeriph_Driver/src/stm32f0xx_crc.c **** 
 142:Libraries/STM32F0xx_StdPeriph_Driver/src/stm32f0xx_crc.c ****   /* Write to CR register */
 143:Libraries/STM32F0xx_StdPeriph_Driver/src/stm32f0xx_crc.c ****   CRC->CR = (uint32_t)tmpcr;
 121              		.loc 1 143 3 is_stmt 1 view .LVU23
 122              		.loc 1 143 11 is_stmt 0 view .LVU24
 123 000a 9360     		str	r3, [r2, #8]
 144:Libraries/STM32F0xx_StdPeriph_Driver/src/stm32f0xx_crc.c **** }
 124              		.loc 1 144 1 view .LVU25
 125              		@ sp needed
 126 000c 7047     		bx	lr
 127              	.L9:
 128 000e C046     		.align	2
 129              	.L8:
 130 0010 00300240 		.word	1073885184
 131              		.cfi_endproc
 132              	.LFE34:
 134              		.section	.text.CRC_ReverseOutputDataCmd,"ax",%progbits
 135              		.align	1
 136              		.global	CRC_ReverseOutputDataCmd
 137              		.syntax unified
 138              		.code	16
 139              		.thumb_func
 140              		.fpu softvfp
 142              	CRC_ReverseOutputDataCmd:
 143              	.LVL4:
 144              	.LFB35:
 145:Libraries/STM32F0xx_StdPeriph_Driver/src/stm32f0xx_crc.c **** 
 146:Libraries/STM32F0xx_StdPeriph_Driver/src/stm32f0xx_crc.c **** /**
 147:Libraries/STM32F0xx_StdPeriph_Driver/src/stm32f0xx_crc.c ****   * @brief  Enables or disable the reverse operation on output data.
 148:Libraries/STM32F0xx_StdPeriph_Driver/src/stm32f0xx_crc.c ****   *         The reverse operation on output data is performed on 32-bit.
ARM GAS  /tmp/cckOfEtk.s 			page 6


 149:Libraries/STM32F0xx_StdPeriph_Driver/src/stm32f0xx_crc.c ****   * @param  NewState: new state of the reverse operation on output data.
 150:Libraries/STM32F0xx_StdPeriph_Driver/src/stm32f0xx_crc.c ****   *   This parameter can be: ENABLE or DISABLE.
 151:Libraries/STM32F0xx_StdPeriph_Driver/src/stm32f0xx_crc.c ****   * @retval None
 152:Libraries/STM32F0xx_StdPeriph_Driver/src/stm32f0xx_crc.c ****   */
 153:Libraries/STM32F0xx_StdPeriph_Driver/src/stm32f0xx_crc.c **** void CRC_ReverseOutputDataCmd(FunctionalState NewState)
 154:Libraries/STM32F0xx_StdPeriph_Driver/src/stm32f0xx_crc.c **** {
 145              		.loc 1 154 1 is_stmt 1 view -0
 146              		.cfi_startproc
 147              		@ args = 0, pretend = 0, frame = 0
 148              		@ frame_needed = 0, uses_anonymous_args = 0
 149              		@ link register save eliminated.
 155:Libraries/STM32F0xx_StdPeriph_Driver/src/stm32f0xx_crc.c ****   /* Check the parameters */
 156:Libraries/STM32F0xx_StdPeriph_Driver/src/stm32f0xx_crc.c ****   assert_param(IS_FUNCTIONAL_STATE(NewState));
 150              		.loc 1 156 3 view .LVU27
 157:Libraries/STM32F0xx_StdPeriph_Driver/src/stm32f0xx_crc.c **** 
 158:Libraries/STM32F0xx_StdPeriph_Driver/src/stm32f0xx_crc.c ****   if (NewState != DISABLE)
 151              		.loc 1 158 3 view .LVU28
 152              		.loc 1 158 6 is_stmt 0 view .LVU29
 153 0000 0028     		cmp	r0, #0
 154 0002 05D0     		beq	.L11
 159:Libraries/STM32F0xx_StdPeriph_Driver/src/stm32f0xx_crc.c ****   {
 160:Libraries/STM32F0xx_StdPeriph_Driver/src/stm32f0xx_crc.c ****     /* Enable reverse operation on output data */
 161:Libraries/STM32F0xx_StdPeriph_Driver/src/stm32f0xx_crc.c ****     CRC->CR |= CRC_CR_REV_OUT;
 155              		.loc 1 161 5 is_stmt 1 view .LVU30
 156              		.loc 1 161 13 is_stmt 0 view .LVU31
 157 0004 054A     		ldr	r2, .L13
 158 0006 9368     		ldr	r3, [r2, #8]
 159 0008 8021     		movs	r1, #128
 160 000a 0B43     		orrs	r3, r1
 161 000c 9360     		str	r3, [r2, #8]
 162              	.L10:
 162:Libraries/STM32F0xx_StdPeriph_Driver/src/stm32f0xx_crc.c ****   }
 163:Libraries/STM32F0xx_StdPeriph_Driver/src/stm32f0xx_crc.c ****   else
 164:Libraries/STM32F0xx_StdPeriph_Driver/src/stm32f0xx_crc.c ****   {
 165:Libraries/STM32F0xx_StdPeriph_Driver/src/stm32f0xx_crc.c ****     /* Disable reverse operation on output data */
 166:Libraries/STM32F0xx_StdPeriph_Driver/src/stm32f0xx_crc.c ****     CRC->CR &= (uint32_t)~((uint32_t)CRC_CR_REV_OUT);
 167:Libraries/STM32F0xx_StdPeriph_Driver/src/stm32f0xx_crc.c ****   }
 168:Libraries/STM32F0xx_StdPeriph_Driver/src/stm32f0xx_crc.c **** }
 163              		.loc 1 168 1 view .LVU32
 164              		@ sp needed
 165 000e 7047     		bx	lr
 166              	.L11:
 166:Libraries/STM32F0xx_StdPeriph_Driver/src/stm32f0xx_crc.c ****   }
 167              		.loc 1 166 5 is_stmt 1 view .LVU33
 166:Libraries/STM32F0xx_StdPeriph_Driver/src/stm32f0xx_crc.c ****   }
 168              		.loc 1 166 13 is_stmt 0 view .LVU34
 169 0010 024A     		ldr	r2, .L13
 170 0012 9368     		ldr	r3, [r2, #8]
 171 0014 8021     		movs	r1, #128
 172 0016 8B43     		bics	r3, r1
 173 0018 9360     		str	r3, [r2, #8]
 174              		.loc 1 168 1 view .LVU35
 175 001a F8E7     		b	.L10
 176              	.L14:
 177              		.align	2
 178              	.L13:
 179 001c 00300240 		.word	1073885184
ARM GAS  /tmp/cckOfEtk.s 			page 7


 180              		.cfi_endproc
 181              	.LFE35:
 183              		.section	.text.CRC_SetInitRegister,"ax",%progbits
 184              		.align	1
 185              		.global	CRC_SetInitRegister
 186              		.syntax unified
 187              		.code	16
 188              		.thumb_func
 189              		.fpu softvfp
 191              	CRC_SetInitRegister:
 192              	.LVL5:
 193              	.LFB36:
 169:Libraries/STM32F0xx_StdPeriph_Driver/src/stm32f0xx_crc.c **** 
 170:Libraries/STM32F0xx_StdPeriph_Driver/src/stm32f0xx_crc.c **** /**
 171:Libraries/STM32F0xx_StdPeriph_Driver/src/stm32f0xx_crc.c ****   * @brief  Initializes the INIT register.
 172:Libraries/STM32F0xx_StdPeriph_Driver/src/stm32f0xx_crc.c ****   * @note   After resetting CRC calculation unit, CRC_InitValue is stored in DR register
 173:Libraries/STM32F0xx_StdPeriph_Driver/src/stm32f0xx_crc.c ****   * @param  CRC_InitValue: Programmable initial CRC value
 174:Libraries/STM32F0xx_StdPeriph_Driver/src/stm32f0xx_crc.c ****   * @retval None
 175:Libraries/STM32F0xx_StdPeriph_Driver/src/stm32f0xx_crc.c ****   */
 176:Libraries/STM32F0xx_StdPeriph_Driver/src/stm32f0xx_crc.c **** void CRC_SetInitRegister(uint32_t CRC_InitValue)
 177:Libraries/STM32F0xx_StdPeriph_Driver/src/stm32f0xx_crc.c **** {
 194              		.loc 1 177 1 is_stmt 1 view -0
 195              		.cfi_startproc
 196              		@ args = 0, pretend = 0, frame = 0
 197              		@ frame_needed = 0, uses_anonymous_args = 0
 198              		@ link register save eliminated.
 178:Libraries/STM32F0xx_StdPeriph_Driver/src/stm32f0xx_crc.c ****   CRC->INIT = CRC_InitValue;
 199              		.loc 1 178 3 view .LVU37
 200              		.loc 1 178 13 is_stmt 0 view .LVU38
 201 0000 014B     		ldr	r3, .L16
 202 0002 1861     		str	r0, [r3, #16]
 179:Libraries/STM32F0xx_StdPeriph_Driver/src/stm32f0xx_crc.c **** }
 203              		.loc 1 179 1 view .LVU39
 204              		@ sp needed
 205 0004 7047     		bx	lr
 206              	.L17:
 207 0006 C046     		.align	2
 208              	.L16:
 209 0008 00300240 		.word	1073885184
 210              		.cfi_endproc
 211              	.LFE36:
 213              		.section	.text.CRC_CalcCRC,"ax",%progbits
 214              		.align	1
 215              		.global	CRC_CalcCRC
 216              		.syntax unified
 217              		.code	16
 218              		.thumb_func
 219              		.fpu softvfp
 221              	CRC_CalcCRC:
 222              	.LVL6:
 223              	.LFB37:
 180:Libraries/STM32F0xx_StdPeriph_Driver/src/stm32f0xx_crc.c **** 
 181:Libraries/STM32F0xx_StdPeriph_Driver/src/stm32f0xx_crc.c **** /**
 182:Libraries/STM32F0xx_StdPeriph_Driver/src/stm32f0xx_crc.c ****   * @}
 183:Libraries/STM32F0xx_StdPeriph_Driver/src/stm32f0xx_crc.c ****   */
 184:Libraries/STM32F0xx_StdPeriph_Driver/src/stm32f0xx_crc.c **** 
 185:Libraries/STM32F0xx_StdPeriph_Driver/src/stm32f0xx_crc.c **** /** @defgroup CRC_Group2 CRC computation of one/many 32-bit data functions
ARM GAS  /tmp/cckOfEtk.s 			page 8


 186:Libraries/STM32F0xx_StdPeriph_Driver/src/stm32f0xx_crc.c ****  *  @brief   CRC computation of one/many 32-bit data functions
 187:Libraries/STM32F0xx_StdPeriph_Driver/src/stm32f0xx_crc.c ****  *
 188:Libraries/STM32F0xx_StdPeriph_Driver/src/stm32f0xx_crc.c **** @verbatim
 189:Libraries/STM32F0xx_StdPeriph_Driver/src/stm32f0xx_crc.c ****  ===============================================================================
 190:Libraries/STM32F0xx_StdPeriph_Driver/src/stm32f0xx_crc.c ****                      ##### CRC computation functions #####
 191:Libraries/STM32F0xx_StdPeriph_Driver/src/stm32f0xx_crc.c ****  ===============================================================================
 192:Libraries/STM32F0xx_StdPeriph_Driver/src/stm32f0xx_crc.c **** 
 193:Libraries/STM32F0xx_StdPeriph_Driver/src/stm32f0xx_crc.c **** @endverbatim
 194:Libraries/STM32F0xx_StdPeriph_Driver/src/stm32f0xx_crc.c ****   * @{
 195:Libraries/STM32F0xx_StdPeriph_Driver/src/stm32f0xx_crc.c ****   */
 196:Libraries/STM32F0xx_StdPeriph_Driver/src/stm32f0xx_crc.c **** 
 197:Libraries/STM32F0xx_StdPeriph_Driver/src/stm32f0xx_crc.c **** /**
 198:Libraries/STM32F0xx_StdPeriph_Driver/src/stm32f0xx_crc.c ****   * @brief  Computes the 32-bit CRC of a given data word(32-bit).
 199:Libraries/STM32F0xx_StdPeriph_Driver/src/stm32f0xx_crc.c ****   * @param  CRC_Data: data word(32-bit) to compute its CRC
 200:Libraries/STM32F0xx_StdPeriph_Driver/src/stm32f0xx_crc.c ****   * @retval 32-bit CRC
 201:Libraries/STM32F0xx_StdPeriph_Driver/src/stm32f0xx_crc.c ****   */
 202:Libraries/STM32F0xx_StdPeriph_Driver/src/stm32f0xx_crc.c **** uint32_t CRC_CalcCRC(uint32_t CRC_Data)
 203:Libraries/STM32F0xx_StdPeriph_Driver/src/stm32f0xx_crc.c **** {
 224              		.loc 1 203 1 is_stmt 1 view -0
 225              		.cfi_startproc
 226              		@ args = 0, pretend = 0, frame = 0
 227              		@ frame_needed = 0, uses_anonymous_args = 0
 228              		@ link register save eliminated.
 204:Libraries/STM32F0xx_StdPeriph_Driver/src/stm32f0xx_crc.c ****   CRC->DR = CRC_Data;
 229              		.loc 1 204 3 view .LVU41
 230              		.loc 1 204 11 is_stmt 0 view .LVU42
 231 0000 014B     		ldr	r3, .L19
 232 0002 1860     		str	r0, [r3]
 205:Libraries/STM32F0xx_StdPeriph_Driver/src/stm32f0xx_crc.c ****   
 206:Libraries/STM32F0xx_StdPeriph_Driver/src/stm32f0xx_crc.c ****   return (CRC->DR);
 233              		.loc 1 206 3 is_stmt 1 view .LVU43
 234              		.loc 1 206 14 is_stmt 0 view .LVU44
 235 0004 1868     		ldr	r0, [r3]
 236              	.LVL7:
 207:Libraries/STM32F0xx_StdPeriph_Driver/src/stm32f0xx_crc.c **** }
 237              		.loc 1 207 1 view .LVU45
 238              		@ sp needed
 239 0006 7047     		bx	lr
 240              	.L20:
 241              		.align	2
 242              	.L19:
 243 0008 00300240 		.word	1073885184
 244              		.cfi_endproc
 245              	.LFE37:
 247              		.section	.text.CRC_CalcBlockCRC,"ax",%progbits
 248              		.align	1
 249              		.global	CRC_CalcBlockCRC
 250              		.syntax unified
 251              		.code	16
 252              		.thumb_func
 253              		.fpu softvfp
 255              	CRC_CalcBlockCRC:
 256              	.LVL8:
 257              	.LFB38:
 208:Libraries/STM32F0xx_StdPeriph_Driver/src/stm32f0xx_crc.c **** 
 209:Libraries/STM32F0xx_StdPeriph_Driver/src/stm32f0xx_crc.c **** /**
 210:Libraries/STM32F0xx_StdPeriph_Driver/src/stm32f0xx_crc.c ****   * @brief  Computes the 32-bit CRC of a given buffer of data word(32-bit).
ARM GAS  /tmp/cckOfEtk.s 			page 9


 211:Libraries/STM32F0xx_StdPeriph_Driver/src/stm32f0xx_crc.c ****   * @param  pBuffer: pointer to the buffer containing the data to be computed
 212:Libraries/STM32F0xx_StdPeriph_Driver/src/stm32f0xx_crc.c ****   * @param  BufferLength: length of the buffer to be computed
 213:Libraries/STM32F0xx_StdPeriph_Driver/src/stm32f0xx_crc.c ****   * @retval 32-bit CRC
 214:Libraries/STM32F0xx_StdPeriph_Driver/src/stm32f0xx_crc.c ****   */
 215:Libraries/STM32F0xx_StdPeriph_Driver/src/stm32f0xx_crc.c **** uint32_t CRC_CalcBlockCRC(uint32_t pBuffer[], uint32_t BufferLength)
 216:Libraries/STM32F0xx_StdPeriph_Driver/src/stm32f0xx_crc.c **** {
 258              		.loc 1 216 1 is_stmt 1 view -0
 259              		.cfi_startproc
 260              		@ args = 0, pretend = 0, frame = 0
 261              		@ frame_needed = 0, uses_anonymous_args = 0
 262              		.loc 1 216 1 is_stmt 0 view .LVU47
 263 0000 10B5     		push	{r4, lr}
 264              	.LCFI0:
 265              		.cfi_def_cfa_offset 8
 266              		.cfi_offset 4, -8
 267              		.cfi_offset 14, -4
 217:Libraries/STM32F0xx_StdPeriph_Driver/src/stm32f0xx_crc.c ****   uint32_t index = 0;
 268              		.loc 1 217 3 is_stmt 1 view .LVU48
 269              	.LVL9:
 218:Libraries/STM32F0xx_StdPeriph_Driver/src/stm32f0xx_crc.c ****   
 219:Libraries/STM32F0xx_StdPeriph_Driver/src/stm32f0xx_crc.c ****   for(index = 0; index < BufferLength; index++)
 270              		.loc 1 219 3 view .LVU49
 271              		.loc 1 219 13 is_stmt 0 view .LVU50
 272 0002 0023     		movs	r3, #0
 273              	.LVL10:
 274              	.L22:
 275              		.loc 1 219 18 is_stmt 1 discriminator 1 view .LVU51
 276              		.loc 1 219 3 is_stmt 0 discriminator 1 view .LVU52
 277 0004 8B42     		cmp	r3, r1
 278 0006 05D2     		bcs	.L24
 220:Libraries/STM32F0xx_StdPeriph_Driver/src/stm32f0xx_crc.c ****   {
 221:Libraries/STM32F0xx_StdPeriph_Driver/src/stm32f0xx_crc.c ****     CRC->DR = pBuffer[index];
 279              		.loc 1 221 5 is_stmt 1 discriminator 3 view .LVU53
 280              		.loc 1 221 22 is_stmt 0 discriminator 3 view .LVU54
 281 0008 9A00     		lsls	r2, r3, #2
 282 000a 1458     		ldr	r4, [r2, r0]
 283              		.loc 1 221 13 discriminator 3 view .LVU55
 284 000c 034A     		ldr	r2, .L25
 285 000e 1460     		str	r4, [r2]
 219:Libraries/STM32F0xx_StdPeriph_Driver/src/stm32f0xx_crc.c ****   {
 286              		.loc 1 219 40 is_stmt 1 discriminator 3 view .LVU56
 219:Libraries/STM32F0xx_StdPeriph_Driver/src/stm32f0xx_crc.c ****   {
 287              		.loc 1 219 45 is_stmt 0 discriminator 3 view .LVU57
 288 0010 0133     		adds	r3, r3, #1
 289              	.LVL11:
 219:Libraries/STM32F0xx_StdPeriph_Driver/src/stm32f0xx_crc.c ****   {
 290              		.loc 1 219 45 discriminator 3 view .LVU58
 291 0012 F7E7     		b	.L22
 292              	.L24:
 222:Libraries/STM32F0xx_StdPeriph_Driver/src/stm32f0xx_crc.c ****   }
 223:Libraries/STM32F0xx_StdPeriph_Driver/src/stm32f0xx_crc.c ****   return (CRC->DR);
 293              		.loc 1 223 3 is_stmt 1 view .LVU59
 294              		.loc 1 223 14 is_stmt 0 view .LVU60
 295 0014 014B     		ldr	r3, .L25
 296              	.LVL12:
 297              		.loc 1 223 14 view .LVU61
 298 0016 1868     		ldr	r0, [r3]
ARM GAS  /tmp/cckOfEtk.s 			page 10


 299              	.LVL13:
 224:Libraries/STM32F0xx_StdPeriph_Driver/src/stm32f0xx_crc.c **** }
 300              		.loc 1 224 1 view .LVU62
 301              		@ sp needed
 302 0018 10BD     		pop	{r4, pc}
 303              	.L26:
 304 001a C046     		.align	2
 305              	.L25:
 306 001c 00300240 		.word	1073885184
 307              		.cfi_endproc
 308              	.LFE38:
 310              		.section	.text.CRC_GetCRC,"ax",%progbits
 311              		.align	1
 312              		.global	CRC_GetCRC
 313              		.syntax unified
 314              		.code	16
 315              		.thumb_func
 316              		.fpu softvfp
 318              	CRC_GetCRC:
 319              	.LFB39:
 225:Libraries/STM32F0xx_StdPeriph_Driver/src/stm32f0xx_crc.c **** 
 226:Libraries/STM32F0xx_StdPeriph_Driver/src/stm32f0xx_crc.c **** /**
 227:Libraries/STM32F0xx_StdPeriph_Driver/src/stm32f0xx_crc.c ****   * @brief  Returns the current CRC value.
 228:Libraries/STM32F0xx_StdPeriph_Driver/src/stm32f0xx_crc.c ****   * @param  None
 229:Libraries/STM32F0xx_StdPeriph_Driver/src/stm32f0xx_crc.c ****   * @retval 32-bit CRC
 230:Libraries/STM32F0xx_StdPeriph_Driver/src/stm32f0xx_crc.c ****   */
 231:Libraries/STM32F0xx_StdPeriph_Driver/src/stm32f0xx_crc.c **** uint32_t CRC_GetCRC(void)
 232:Libraries/STM32F0xx_StdPeriph_Driver/src/stm32f0xx_crc.c **** {
 320              		.loc 1 232 1 is_stmt 1 view -0
 321              		.cfi_startproc
 322              		@ args = 0, pretend = 0, frame = 0
 323              		@ frame_needed = 0, uses_anonymous_args = 0
 324              		@ link register save eliminated.
 233:Libraries/STM32F0xx_StdPeriph_Driver/src/stm32f0xx_crc.c ****   return (CRC->DR);
 325              		.loc 1 233 3 view .LVU64
 326              		.loc 1 233 14 is_stmt 0 view .LVU65
 327 0000 014B     		ldr	r3, .L28
 328 0002 1868     		ldr	r0, [r3]
 234:Libraries/STM32F0xx_StdPeriph_Driver/src/stm32f0xx_crc.c **** }
 329              		.loc 1 234 1 view .LVU66
 330              		@ sp needed
 331 0004 7047     		bx	lr
 332              	.L29:
 333 0006 C046     		.align	2
 334              	.L28:
 335 0008 00300240 		.word	1073885184
 336              		.cfi_endproc
 337              	.LFE39:
 339              		.section	.text.CRC_SetIDRegister,"ax",%progbits
 340              		.align	1
 341              		.global	CRC_SetIDRegister
 342              		.syntax unified
 343              		.code	16
 344              		.thumb_func
 345              		.fpu softvfp
 347              	CRC_SetIDRegister:
 348              	.LVL14:
ARM GAS  /tmp/cckOfEtk.s 			page 11


 349              	.LFB40:
 235:Libraries/STM32F0xx_StdPeriph_Driver/src/stm32f0xx_crc.c **** 
 236:Libraries/STM32F0xx_StdPeriph_Driver/src/stm32f0xx_crc.c **** /**
 237:Libraries/STM32F0xx_StdPeriph_Driver/src/stm32f0xx_crc.c ****   * @}
 238:Libraries/STM32F0xx_StdPeriph_Driver/src/stm32f0xx_crc.c ****   */
 239:Libraries/STM32F0xx_StdPeriph_Driver/src/stm32f0xx_crc.c **** 
 240:Libraries/STM32F0xx_StdPeriph_Driver/src/stm32f0xx_crc.c **** /** @defgroup CRC_Group3 CRC Independent Register (IDR) access functions
 241:Libraries/STM32F0xx_StdPeriph_Driver/src/stm32f0xx_crc.c ****  *  @brief   CRC Independent Register (IDR) access (write/read) functions
 242:Libraries/STM32F0xx_StdPeriph_Driver/src/stm32f0xx_crc.c ****  *
 243:Libraries/STM32F0xx_StdPeriph_Driver/src/stm32f0xx_crc.c **** @verbatim
 244:Libraries/STM32F0xx_StdPeriph_Driver/src/stm32f0xx_crc.c ****  ===============================================================================
 245:Libraries/STM32F0xx_StdPeriph_Driver/src/stm32f0xx_crc.c ****            ##### CRC Independent Register (IDR) access functions #####
 246:Libraries/STM32F0xx_StdPeriph_Driver/src/stm32f0xx_crc.c ****  ===============================================================================
 247:Libraries/STM32F0xx_StdPeriph_Driver/src/stm32f0xx_crc.c **** 
 248:Libraries/STM32F0xx_StdPeriph_Driver/src/stm32f0xx_crc.c **** @endverbatim
 249:Libraries/STM32F0xx_StdPeriph_Driver/src/stm32f0xx_crc.c ****   * @{
 250:Libraries/STM32F0xx_StdPeriph_Driver/src/stm32f0xx_crc.c ****   */
 251:Libraries/STM32F0xx_StdPeriph_Driver/src/stm32f0xx_crc.c **** 
 252:Libraries/STM32F0xx_StdPeriph_Driver/src/stm32f0xx_crc.c **** /**
 253:Libraries/STM32F0xx_StdPeriph_Driver/src/stm32f0xx_crc.c ****   * @brief  Stores an 8-bit data in the Independent Data(ID) register.
 254:Libraries/STM32F0xx_StdPeriph_Driver/src/stm32f0xx_crc.c ****   * @param  CRC_IDValue: 8-bit value to be stored in the ID register 					
 255:Libraries/STM32F0xx_StdPeriph_Driver/src/stm32f0xx_crc.c ****   * @retval None
 256:Libraries/STM32F0xx_StdPeriph_Driver/src/stm32f0xx_crc.c ****   */
 257:Libraries/STM32F0xx_StdPeriph_Driver/src/stm32f0xx_crc.c **** void CRC_SetIDRegister(uint8_t CRC_IDValue)
 258:Libraries/STM32F0xx_StdPeriph_Driver/src/stm32f0xx_crc.c **** {
 350              		.loc 1 258 1 is_stmt 1 view -0
 351              		.cfi_startproc
 352              		@ args = 0, pretend = 0, frame = 0
 353              		@ frame_needed = 0, uses_anonymous_args = 0
 354              		@ link register save eliminated.
 259:Libraries/STM32F0xx_StdPeriph_Driver/src/stm32f0xx_crc.c ****   CRC->IDR = CRC_IDValue;
 355              		.loc 1 259 3 view .LVU68
 356              		.loc 1 259 12 is_stmt 0 view .LVU69
 357 0000 014B     		ldr	r3, .L31
 358 0002 1871     		strb	r0, [r3, #4]
 260:Libraries/STM32F0xx_StdPeriph_Driver/src/stm32f0xx_crc.c **** }
 359              		.loc 1 260 1 view .LVU70
 360              		@ sp needed
 361 0004 7047     		bx	lr
 362              	.L32:
 363 0006 C046     		.align	2
 364              	.L31:
 365 0008 00300240 		.word	1073885184
 366              		.cfi_endproc
 367              	.LFE40:
 369              		.section	.text.CRC_GetIDRegister,"ax",%progbits
 370              		.align	1
 371              		.global	CRC_GetIDRegister
 372              		.syntax unified
 373              		.code	16
 374              		.thumb_func
 375              		.fpu softvfp
 377              	CRC_GetIDRegister:
 378              	.LFB41:
 261:Libraries/STM32F0xx_StdPeriph_Driver/src/stm32f0xx_crc.c **** 
 262:Libraries/STM32F0xx_StdPeriph_Driver/src/stm32f0xx_crc.c **** /**
 263:Libraries/STM32F0xx_StdPeriph_Driver/src/stm32f0xx_crc.c ****   * @brief  Returns the 8-bit data stored in the Independent Data(ID) register
ARM GAS  /tmp/cckOfEtk.s 			page 12


 264:Libraries/STM32F0xx_StdPeriph_Driver/src/stm32f0xx_crc.c ****   * @param  None
 265:Libraries/STM32F0xx_StdPeriph_Driver/src/stm32f0xx_crc.c ****   * @retval 8-bit value of the ID register 
 266:Libraries/STM32F0xx_StdPeriph_Driver/src/stm32f0xx_crc.c ****   */
 267:Libraries/STM32F0xx_StdPeriph_Driver/src/stm32f0xx_crc.c **** uint8_t CRC_GetIDRegister(void)
 268:Libraries/STM32F0xx_StdPeriph_Driver/src/stm32f0xx_crc.c **** {
 379              		.loc 1 268 1 is_stmt 1 view -0
 380              		.cfi_startproc
 381              		@ args = 0, pretend = 0, frame = 0
 382              		@ frame_needed = 0, uses_anonymous_args = 0
 383              		@ link register save eliminated.
 269:Libraries/STM32F0xx_StdPeriph_Driver/src/stm32f0xx_crc.c ****   return (CRC->IDR);
 384              		.loc 1 269 3 view .LVU72
 385              		.loc 1 269 14 is_stmt 0 view .LVU73
 386 0000 014B     		ldr	r3, .L34
 387 0002 1879     		ldrb	r0, [r3, #4]
 388 0004 C0B2     		uxtb	r0, r0
 270:Libraries/STM32F0xx_StdPeriph_Driver/src/stm32f0xx_crc.c **** }
 389              		.loc 1 270 1 view .LVU74
 390              		@ sp needed
 391 0006 7047     		bx	lr
 392              	.L35:
 393              		.align	2
 394              	.L34:
 395 0008 00300240 		.word	1073885184
 396              		.cfi_endproc
 397              	.LFE41:
 399              		.text
 400              	.Letext0:
 401              		.file 2 "/usr/arm-none-eabi/include/machine/_default_types.h"
 402              		.file 3 "/usr/arm-none-eabi/include/sys/_stdint.h"
 403              		.file 4 "./Libraries/CMSIS/ST/STM32F0xx/Include/stm32f0xx.h"
 404              		.file 5 "./Libraries/CMSIS/ST/STM32F0xx/Include/system_stm32f0xx.h"
ARM GAS  /tmp/cckOfEtk.s 			page 13

